LIBRARY	"adept"
EXPORTS
	 ??$_Buynode@UGap@adept@@@?$_List_buy@UGap@adept@@V?$allocator@UGap@adept@@@std@@@std@@QEAAPEAU?$_List_node@UGap@adept@@PEAX@1@PEAU21@0$$QEAUGap@adept@@@Z
	 ??$_Uninit_def_fill_n@PEAU?$Block@$03N@adept@@_KV?$allocator@U?$Block@$03N@adept@@@std@@U12@@std@@YAXPEAU?$Block@$03N@adept@@_KAEAU?$_Wrap_alloc@V?$allocator@U?$Block@$03N@adept@@@std@@@0@0U_Nonscalar_ptr_iterator_tag@0@@Z
	 ??$_Uninit_move@PEAU?$Block@$03N@adept@@PEAU12@V?$allocator@U?$Block@$03N@adept@@@std@@U12@@std@@YAPEAU?$Block@$03N@adept@@PEAU12@00AEAU?$_Wrap_alloc@V?$allocator@U?$Block@$03N@adept@@@std@@@0@0U_Nonscalar_ptr_iterator_tag@0@@Z
	 ??_7autodiff_exception@adept@@6B@
	 ??_7dependents_or_independents_not_identified@adept@@6B@
	 ??_7gradients_not_initialized@adept@@6B@
	 ??_7stack_already_active@adept@@6B@
	 ??_C@_0EO@FOJNMDDE@Attempt?5to?5activate?5an?5adept?3?3St@
	 ??_R1A@?0A@EA@autodiff_exception@adept@@8
	 ??_R1A@?0A@EA@dependents_or_independents_not_identified@adept@@8
	 ??_R1A@?0A@EA@gradients_not_initialized@adept@@8
	 ??_R1A@?0A@EA@stack_already_active@adept@@8
	 ??_R2autodiff_exception@adept@@8
	 ??_R2dependents_or_independents_not_identified@adept@@8
	 ??_R2gradients_not_initialized@adept@@8
	 ??_R2stack_already_active@adept@@8
	 ??_R3autodiff_exception@adept@@8
	 ??_R3dependents_or_independents_not_identified@adept@@8
	 ??_R3gradients_not_initialized@adept@@8
	 ??_R3stack_already_active@adept@@8
	 ??_R4autodiff_exception@adept@@6B@
	 ??_R4dependents_or_independents_not_identified@adept@@6B@
	 ??_R4gradients_not_initialized@adept@@6B@
	 ??_R4stack_already_active@adept@@6B@
	 ??0autodiff_exception@adept@@QEAA@AEBV01@@Z
	 ??0dependents_or_independents_not_identified@adept@@QEAA@AEBV01@@Z
	 ??0gradients_not_initialized@adept@@QEAA@AEBV01@@Z
	 ??0stack_already_active@adept@@QEAA@AEBV01@@Z
	 ??0Statement@adept@@QEAA@XZ
	 ??1dependents_or_independents_not_identified@adept@@UEAA@XZ
	 ??1gradients_not_initialized@adept@@UEAA@XZ
	 ??1Stack@adept@@QEAA@XZ
	 ??1stack_already_active@adept@@UEAA@XZ
	 ?_Buynode0@?$_List_alloc@U?$_List_base_types@UGap@adept@@V?$allocator@UGap@adept@@@std@@@std@@@std@@QEAAPEAU?$_List_node@UGap@adept@@PEAX@2@PEAU32@0@Z
	 ?_Reallocate@?$vector@U?$Block@$03N@adept@@V?$allocator@U?$Block@$03N@adept@@@std@@@std@@IEAAX_K@Z
	 ?_stack_current_thread@adept@@3PEAVStack@1@EA
	 ?_stack_current_thread_unsafe@adept@@3PEAVStack@1@EA
	 ?_Tidy@?$vector@U?$Block@$03N@adept@@V?$allocator@U?$Block@$03N@adept@@@std@@@std@@IEAAXXZ
	 ?activate@Stack@adept@@QEAAXXZ
	 ?allocate@?$allocator@U?$Block@$03N@adept@@@std@@QEAAPEAU?$Block@$03N@adept@@_K@Z
	 ?compute_adjoint@Stack@adept@@QEAAXXZ
	 ?compute_tangent_linear@Stack@adept@@QEAAXXZ
	 ?deallocate@?$allocator@U?$Block@$03N@adept@@@std@@QEAAXPEAU?$Block@$03N@adept@@_K@Z
	 ?grow_operation_stack@Stack@adept@@AEAAXI@Z
	 ?grow_statement_stack@Stack@adept@@AEAAXI@Z
	 ?initialize@Stack@adept@@AEAAXI@Z
	 ?initialize_gradients@Stack@adept@@AEAAXXZ
	 ?jacobian@Stack@adept@@QEAAXPEAN@Z
	 ?jacobian_forward@Stack@adept@@QEAAXPEAN@Z
	 ?jacobian_reverse@Stack@adept@@QEAAXPEAN@Z
	 ?max_jacobian_threads@Stack@adept@@QEBAHXZ
	 ?print_gaps@Stack@adept@@QEBAXAEAV?$basic_ostream@DU?$char_traits@D@std@@@std@@@Z
	 ?print_gradients@Stack@adept@@QEBA_NAEAV?$basic_ostream@DU?$char_traits@D@std@@@std@@@Z
	 ?print_statements@Stack@adept@@QEBAXAEAV?$basic_ostream@DU?$char_traits@D@std@@@std@@@Z
	 ?print_status@Stack@adept@@QEBAXAEAV?$basic_ostream@DU?$char_traits@D@std@@@std@@@Z
	 ?push_lhs@Stack@adept@@QEAAXAEBI@Z
	 ?resize@?$vector@U?$Block@$03N@adept@@V?$allocator@U?$Block@$03N@adept@@@std@@@std@@QEAAX_K@Z
	 ?set_max_jacobian_threads@Stack@adept@@QEAAHH@Z
	 ?unregister_gradient_not_top@Stack@adept@@QEAAXAEBI@Z
	 ?what@autodiff_exception@adept@@UEBAPEBDXZ
	 ??$_Uninit_def_fill_n@PEAU?$Block@$03N@adept@@_KV?$allocator@U?$Block@$03N@adept@@@std@@U12@@std@@YAXPEAU?$Block@$03N@adept@@_KAEAU?$_Wrap_alloc@V?$allocator@U?$Block@$03N@adept@@@std@@@0@0U_Nonscalar_ptr_iterator_tag@0@@Z
	 ??_7autodiff_exception@adept@@6B@
	 ??_7dependents_or_independents_not_identified@adept@@6B@
	 ??_R1A@?0A@EA@autodiff_exception@adept@@8
	 ??_R1A@?0A@EA@dependents_or_independents_not_identified@adept@@8
	 ??_R2autodiff_exception@adept@@8
	 ??_R2dependents_or_independents_not_identified@adept@@8
	 ??_R3autodiff_exception@adept@@8
	 ??_R3dependents_or_independents_not_identified@adept@@8
	 ??_R4autodiff_exception@adept@@6B@
	 ??_R4dependents_or_independents_not_identified@adept@@6B@
	 ??0?$vector@U?$Block@$03N@adept@@V?$allocator@U?$Block@$03N@adept@@@std@@@std@@QEAA@_K@Z
	 ??0autodiff_exception@adept@@QEAA@AEBV01@@Z
	 ??0dependents_or_independents_not_identified@adept@@QEAA@AEBV01@@Z
	 ??1dependents_or_independents_not_identified@adept@@UEAA@XZ
	 ?allocate@?$allocator@U?$Block@$03N@adept@@@std@@QEAAPEAU?$Block@$03N@adept@@_K@Z
	 ?deallocate@?$allocator@U?$Block@$03N@adept@@@std@@QEAAXPEAU?$Block@$03N@adept@@_K@Z
	 ?jacobian_forward_openmp@Stack@adept@@AEAAXPEAN@Z
	 ?jacobian_reverse_openmp@Stack@adept@@AEAAXPEAN@Z
	 ?what@autodiff_exception@adept@@UEBAPEBDXZ
