LIBRARY	"alglib"
EXPORTS
	 ?_apbuffers_clear@alglib_impl@@YAXPEAX@Z
	 ?_apbuffers_destroy@alglib_impl@@YAXPEAX@Z
	 ?_apbuffers_init@alglib_impl@@YAXPEAXPEAUae_state@1@@Z
	 ?_apbuffers_init_copy@alglib_impl@@YAXPEAX0PEAUae_state@1@@Z
	 ?_armijostate_clear@alglib_impl@@YAXPEAX@Z
	 ?_armijostate_destroy@alglib_impl@@YAXPEAX@Z
	 ?_armijostate_init@alglib_impl@@YAXPEAXPEAUae_state@1@@Z
	 ?_armijostate_init_copy@alglib_impl@@YAXPEAX0PEAUae_state@1@@Z
	 ?_fasttransformplan_clear@alglib_impl@@YAXPEAX@Z
	 ?_fasttransformplan_destroy@alglib_impl@@YAXPEAX@Z
	 ?_fasttransformplan_init@alglib_impl@@YAXPEAXPEAUae_state@1@@Z
	 ?_fasttransformplan_init_copy@alglib_impl@@YAXPEAX0PEAUae_state@1@@Z
	 ?_linminstate_clear@alglib_impl@@YAXPEAX@Z
	 ?_linminstate_destroy@alglib_impl@@YAXPEAX@Z
	 ?_linminstate_init@alglib_impl@@YAXPEAXPEAUae_state@1@@Z
	 ?_linminstate_init_copy@alglib_impl@@YAXPEAX0PEAUae_state@1@@Z
	 ?_mlpbuffers_clear@alglib_impl@@YAXPEAX@Z
	 ?_mlpbuffers_destroy@alglib_impl@@YAXPEAX@Z
	 ?_mlpbuffers_init@alglib_impl@@YAXPEAXPEAUae_state@1@@Z
	 ?_mlpbuffers_init_copy@alglib_impl@@YAXPEAX0PEAUae_state@1@@Z
	 ?_sboolean_clear@alglib_impl@@YAXPEAX@Z
	 ?_sboolean_destroy@alglib_impl@@YAXPEAX@Z
	 ?_sboolean_init@alglib_impl@@YAXPEAXPEAUae_state@1@@Z
	 ?_sboolean_init_copy@alglib_impl@@YAXPEAX0PEAUae_state@1@@Z
	 ?_sbooleanarray_clear@alglib_impl@@YAXPEAX@Z
	 ?_sbooleanarray_destroy@alglib_impl@@YAXPEAX@Z
	 ?_sbooleanarray_init@alglib_impl@@YAXPEAXPEAUae_state@1@@Z
	 ?_sbooleanarray_init_copy@alglib_impl@@YAXPEAX0PEAUae_state@1@@Z
	 ?_scomplex_clear@alglib_impl@@YAXPEAX@Z
	 ?_scomplex_destroy@alglib_impl@@YAXPEAX@Z
	 ?_scomplex_init@alglib_impl@@YAXPEAXPEAUae_state@1@@Z
	 ?_scomplex_init_copy@alglib_impl@@YAXPEAX0PEAUae_state@1@@Z
	 ?_scomplexarray_clear@alglib_impl@@YAXPEAX@Z
	 ?_scomplexarray_destroy@alglib_impl@@YAXPEAX@Z
	 ?_scomplexarray_init@alglib_impl@@YAXPEAXPEAUae_state@1@@Z
	 ?_scomplexarray_init_copy@alglib_impl@@YAXPEAX0PEAUae_state@1@@Z
	 ?_sinteger_clear@alglib_impl@@YAXPEAX@Z
	 ?_sinteger_destroy@alglib_impl@@YAXPEAX@Z
	 ?_sinteger_init@alglib_impl@@YAXPEAXPEAUae_state@1@@Z
	 ?_sinteger_init_copy@alglib_impl@@YAXPEAX0PEAUae_state@1@@Z
	 ?_sintegerarray_clear@alglib_impl@@YAXPEAX@Z
	 ?_sintegerarray_destroy@alglib_impl@@YAXPEAX@Z
	 ?_sintegerarray_init@alglib_impl@@YAXPEAXPEAUae_state@1@@Z
	 ?_sintegerarray_init_copy@alglib_impl@@YAXPEAX0PEAUae_state@1@@Z
	 ?_sreal_clear@alglib_impl@@YAXPEAX@Z
	 ?_sreal_destroy@alglib_impl@@YAXPEAX@Z
	 ?_sreal_init@alglib_impl@@YAXPEAXPEAUae_state@1@@Z
	 ?_sreal_init_copy@alglib_impl@@YAXPEAX0PEAUae_state@1@@Z
	 ?_srealarray_clear@alglib_impl@@YAXPEAX@Z
	 ?_srealarray_destroy@alglib_impl@@YAXPEAX@Z
	 ?_srealarray_init@alglib_impl@@YAXPEAXPEAUae_state@1@@Z
	 ?_srealarray_init_copy@alglib_impl@@YAXPEAX0PEAUae_state@1@@Z
	 ?alloccomplex@alglib_impl@@YAXPEAUae_serializer@1@Uae_complex@1@PEAUae_state@1@@Z
	 ?allocintegerarray@alglib_impl@@YAXPEAUae_serializer@1@PEAUae_vector@1@_JPEAUae_state@1@@Z
	 ?allocrealarray@alglib_impl@@YAXPEAUae_serializer@1@PEAUae_vector@1@_JPEAUae_state@1@@Z
	 ?allocrealmatrix@alglib_impl@@YAXPEAUae_serializer@1@PEAUae_matrix@1@_J2PEAUae_state@1@@Z
	 ?apperiodicmap@alglib_impl@@YAXPEANNN0PEAUae_state@1@@Z
	 ?applyreflectionfromtheleft@alglib_impl@@YAXPEAUae_matrix@1@NPEAUae_vector@1@_J2221PEAUae_state@1@@Z
	 ?applyreflectionfromtheright@alglib_impl@@YAXPEAUae_matrix@1@NPEAUae_vector@1@_J2221PEAUae_state@1@@Z
	 ?applyrotationsfromtheleft@alglib_impl@@YAX_N_J111PEAUae_vector@1@2PEAUae_matrix@1@2PEAUae_state@1@@Z
	 ?applyrotationsfromtheright@alglib_impl@@YAX_N_J111PEAUae_vector@1@2PEAUae_matrix@1@2PEAUae_state@1@@Z
	 ?approxequalrel@alglib_impl@@YA_NNNNPEAUae_state@1@@Z
	 ?apservisfinitecmatrix@alglib_impl@@YA_NPEAUae_matrix@1@_J1PEAUae_state@1@@Z
	 ?apservisfinitectrmatrix@alglib_impl@@YA_NPEAUae_matrix@1@_J_NPEAUae_state@1@@Z
	 ?apservisfinitematrix@alglib_impl@@YA_NPEAUae_matrix@1@_J1PEAUae_state@1@@Z
	 ?apservisfiniteornanmatrix@alglib_impl@@YA_NPEAUae_matrix@1@_J1PEAUae_state@1@@Z
	 ?aredistinct@alglib_impl@@YA_NPEAUae_vector@1@_JPEAUae_state@1@@Z
	 ?aresameboolean@alglib_impl@@YA_N_N0PEAUae_state@1@@Z
	 ?armijocreate@alglib_impl@@YAX_JPEAUae_vector@1@N1NN0PEAUarmijostate@1@PEAUae_state@1@@Z
	 ?armijoiteration@alglib_impl@@YA_NPEAUarmijostate@1@PEAUae_state@1@@Z
	 ?armijoresults@alglib_impl@@YAXPEAUarmijostate@1@PEA_JPEAN2PEAUae_state@1@@Z
	 ?boundval@alglib_impl@@YANNNNPEAUae_state@1@@Z
	 ?bvectorsetlengthatleast@alglib_impl@@YAXPEAUae_vector@1@_JPEAUae_state@1@@Z
	 ?chunkscount@alglib_impl@@YA_J_J0PEAUae_state@1@@Z
	 ?cmatrixgemmf@alglib_impl@@YA_N_J00Uae_complex@1@PEAUae_matrix@1@00020001200PEAUae_state@1@@Z
	 ?cmatrixgemmk@alglib_impl@@YAX_J00Uae_complex@1@PEAUae_matrix@1@00020001200PEAUae_state@1@@Z
	 ?cmatrixgemmmkl@alglib_impl@@YA_N_J00Uae_complex@1@PEAUae_matrix@1@00020001200PEAUae_state@1@@Z
	 ?cmatrixherkf@alglib_impl@@YA_N_J0NPEAUae_matrix@1@000N100_NPEAUae_state@1@@Z
	 ?cmatrixherkmkl@alglib_impl@@YA_N_J0NPEAUae_matrix@1@000N100_NPEAUae_state@1@@Z
	 ?cmatrixlefttrsmf@alglib_impl@@YA_N_J0PEAUae_matrix@1@00_N20100PEAUae_state@1@@Z
	 ?cmatrixlefttrsmmkl@alglib_impl@@YA_N_J0PEAUae_matrix@1@00_N20100PEAUae_state@1@@Z
	 ?cmatrixmvf@alglib_impl@@YA_N_J0PEAUae_matrix@1@000PEAUae_vector@1@020PEAUae_state@1@@Z
	 ?cmatrixrank1f@alglib_impl@@YA_N_J0PEAUae_matrix@1@00PEAUae_vector@1@020PEAUae_state@1@@Z
	 ?cmatrixrighttrsmf@alglib_impl@@YA_N_J0PEAUae_matrix@1@00_N20100PEAUae_state@1@@Z
	 ?cmatrixrighttrsmmkl@alglib_impl@@YA_N_J0PEAUae_matrix@1@00_N20100PEAUae_state@1@@Z
	 ?cmatrixscaledtrsafesolve@alglib_impl@@YA_NPEAUae_matrix@1@N_JPEAUae_vector@1@_N13NPEAUae_state@1@@Z
	 ?coalesce@alglib_impl@@YANNNPEAUae_state@1@@Z
	 ?columnidxabsmax@alglib_impl@@YA_JPEAUae_matrix@1@_J11PEAUae_state@1@@Z
	 ?complexapplyreflectionfromtheleft@alglib_impl@@YAXPEAUae_matrix@1@Uae_complex@1@PEAUae_vector@1@_J3332PEAUae_state@1@@Z
	 ?complexapplyreflectionfromtheright@alglib_impl@@YAXPEAUae_matrix@1@Uae_complex@1@PEAUae_vector@1@_J3332PEAUae_state@1@@Z
	 ?complexgeneratereflection@alglib_impl@@YAXPEAUae_vector@1@_JPEAUae_complex@1@PEAUae_state@1@@Z
	 ?copyandtranspose@alglib_impl@@YAXPEAUae_matrix@1@_J11101111PEAUae_state@1@@Z
	 ?copyintegerarray@alglib_impl@@YAXPEAUae_vector@1@0PEAUae_state@1@@Z
	 ?copymatrix@alglib_impl@@YAXPEAUae_matrix@1@_J11101111PEAUae_state@1@@Z
	 ?copyrealarray@alglib_impl@@YAXPEAUae_vector@1@0PEAUae_state@1@@Z
	 ?copyrealmatrix@alglib_impl@@YAXPEAUae_matrix@1@0PEAUae_state@1@@Z
	 ?countdown@alglib_impl@@YAXPEA_JPEAUae_state@1@@Z
	 ?dec@alglib_impl@@YAXPEA_JPEAUae_state@1@@Z
	 ?findprimitiverootandinverse@alglib_impl@@YAX_JPEA_J1PEAUae_state@1@@Z
	 ?ftapplyplan@alglib_impl@@YAXPEAUfasttransformplan@1@PEAUae_vector@1@_J2PEAUae_state@1@@Z
	 ?ftbasefactorize@alglib_impl@@YAX_J0PEA_J1PEAUae_state@1@@Z
	 ?ftbasefindsmooth@alglib_impl@@YA_J_JPEAUae_state@1@@Z
	 ?ftbasefindsmootheven@alglib_impl@@YA_J_JPEAUae_state@1@@Z
	 ?ftbasegetflopestimate@alglib_impl@@YAN_JPEAUae_state@1@@Z
	 ?ftbaseissmooth@alglib_impl@@YA_N_JPEAUae_state@1@@Z
	 ?ftcomplexfftplan@alglib_impl@@YAX_J0PEAUfasttransformplan@1@PEAUae_state@1@@Z
	 ?generatereflection@alglib_impl@@YAXPEAUae_vector@1@_JPEANPEAUae_state@1@@Z
	 ?generaterotation@alglib_impl@@YAXNNPEAN00PEAUae_state@1@@Z
	 ?getkdtreeserializationcode@alglib_impl@@YA_JPEAUae_state@1@@Z
	 ?getmlpeserializationcode@alglib_impl@@YA_JPEAUae_state@1@@Z
	 ?getmlpserializationcode@alglib_impl@@YA_JPEAUae_state@1@@Z
	 ?getrbfserializationcode@alglib_impl@@YA_JPEAUae_state@1@@Z
	 ?getrdfserializationcode@alglib_impl@@YA_JPEAUae_state@1@@Z
	 ?hermitianmatrixvectormultiply@alglib_impl@@YAXPEAUae_matrix@1@_N_J2PEAUae_vector@1@Uae_complex@1@3PEAUae_state@1@@Z
	 ?hermitianrank2update@alglib_impl@@YAXPEAUae_matrix@1@_N_J2PEAUae_vector@1@33Uae_complex@1@PEAUae_state@1@@Z
	 ?hmatrixtdmkl@alglib_impl@@YA_NPEAUae_matrix@1@_J_NPEAUae_vector@1@33PEAUae_state@1@@Z
	 ?hmatrixtdunpackqmkl@alglib_impl@@YA_NPEAUae_matrix@1@_J_NPEAUae_vector@1@0PEAUae_state@1@@Z
	 ?hpcchunkedgradient@alglib_impl@@YA_NPEAUae_vector@1@000PEAUae_matrix@1@_J200PEAN_NPEAUae_state@1@@Z
	 ?hpcchunkedprocess@alglib_impl@@YA_NPEAUae_vector@1@000PEAUae_matrix@1@_J200PEAUae_state@1@@Z
	 ?hpcfinalizechunkedgradient@alglib_impl@@YAXPEAUmlpbuffers@1@PEAUae_vector@1@PEAUae_state@1@@Z
	 ?hpcpreparechunkedgradient@alglib_impl@@YAXPEAUae_vector@1@_J111PEAUmlpbuffers@1@PEAUae_state@1@@Z
	 ?imatrixresize@alglib_impl@@YAXPEAUae_matrix@1@_J1PEAUae_state@1@@Z
	 ?inc@alglib_impl@@YAXPEA_JPEAUae_state@1@@Z
	 ?inplacetranspose@alglib_impl@@YAXPEAUae_matrix@1@_J111PEAUae_vector@1@PEAUae_state@1@@Z
	 ?internalschurdecomposition@alglib_impl@@YAXPEAUae_matrix@1@_J11PEAUae_vector@1@20PEA_JPEAUae_state@1@@Z
	 ?inttoreal@alglib_impl@@YAN_JPEAUae_state@1@@Z
	 ?isfinitecvector@alglib_impl@@YA_NPEAUae_vector@1@_JPEAUae_state@1@@Z
	 ?isfinitertrmatrix@alglib_impl@@YA_NPEAUae_matrix@1@_J_NPEAUae_state@1@@Z
	 ?isfinitevector@alglib_impl@@YA_NPEAUae_vector@1@_JPEAUae_state@1@@Z
	 ?ivectorsetlengthatleast@alglib_impl@@YAXPEAUae_vector@1@_JPEAUae_state@1@@Z
	 ?linminnormalized@alglib_impl@@YAXPEAUae_vector@1@PEAN_JPEAUae_state@1@@Z
	 ?logbase2@alglib_impl@@YANNPEAUae_state@1@@Z
	 ?lowerbound@alglib_impl@@YA_JPEAUae_vector@1@_JNPEAUae_state@1@@Z
	 ?matrixmatrixmultiply@alglib_impl@@YAXPEAUae_matrix@1@_J111_N011112N01111NPEAUae_vector@1@PEAUae_state@1@@Z
	 ?matrixvectormultiply@alglib_impl@@YAXPEAUae_matrix@1@_J111_NPEAUae_vector@1@11N311NPEAUae_state@1@@Z
	 ?maxreal3@alglib_impl@@YANNNNPEAUae_state@1@@Z
	 ?mcsrch@alglib_impl@@YAX_JPEAUae_vector@1@PEAN112NNPEA_J31PEAUlinminstate@1@3PEAUae_state@1@@Z
	 ?nucosm1@alglib_impl@@YANNPEAUae_state@1@@Z
	 ?nuexpm1@alglib_impl@@YANNPEAUae_state@1@@Z
	 ?nulog1p@alglib_impl@@YANNPEAUae_state@1@@Z
	 ?pythag2@alglib_impl@@YANNNPEAUae_state@1@@Z
	 ?randomnormal@alglib_impl@@YANPEAUae_state@1@@Z
	 ?randomunit@alglib_impl@@YAX_JPEAUae_vector@1@PEAUae_state@1@@Z
	 ?rankx@alglib_impl@@YAXPEAUae_vector@1@_J_NPEAUapbuffers@1@PEAUae_state@1@@Z
	 ?recsearch@alglib_impl@@YA_JPEAUae_vector@1@_J1110PEAUae_state@1@@Z
	 ?rmatrixbdmkl@alglib_impl@@YA_NPEAUae_matrix@1@_J1PEAUae_vector@1@222PEAUae_state@1@@Z
	 ?rmatrixbdmultiplybymkl@alglib_impl@@YA_NPEAUae_matrix@1@_J1PEAUae_vector@1@2011_N33PEAUae_state@1@@Z
	 ?rmatrixbdsvdmkl@alglib_impl@@YA_NPEAUae_vector@1@0_J_NPEAUae_matrix@1@13131PEA_NPEAUae_state@1@@Z
	 ?rmatrixgemmf@alglib_impl@@YA_N_J00NPEAUae_matrix@1@0001000N100PEAUae_state@1@@Z
	 ?rmatrixgemmk@alglib_impl@@YAX_J00NPEAUae_matrix@1@0001000N100PEAUae_state@1@@Z
	 ?rmatrixgemmk44v00@alglib_impl@@YAX_J00NPEAUae_matrix@1@00100N100PEAUae_state@1@@Z
	 ?rmatrixgemmk44v01@alglib_impl@@YAX_J00NPEAUae_matrix@1@00100N100PEAUae_state@1@@Z
	 ?rmatrixgemmk44v10@alglib_impl@@YAX_J00NPEAUae_matrix@1@00100N100PEAUae_state@1@@Z
	 ?rmatrixgemmk44v11@alglib_impl@@YAX_J00NPEAUae_matrix@1@00100N100PEAUae_state@1@@Z
	 ?rmatrixgemmmkl@alglib_impl@@YA_N_J00NPEAUae_matrix@1@0001000N100PEAUae_state@1@@Z
	 ?rmatrixhessenbergmkl@alglib_impl@@YA_NPEAUae_matrix@1@_JPEAUae_vector@1@PEAUae_state@1@@Z
	 ?rmatrixhessenbergunpackqmkl@alglib_impl@@YA_NPEAUae_matrix@1@_JPEAUae_vector@1@0PEAUae_state@1@@Z
	 ?rmatrixinternalschurdecomposition@alglib_impl@@YAXPEAUae_matrix@1@_J11PEAUae_vector@1@20PEA_JPEAUae_state@1@@Z
	 ?rmatrixinternalschurdecompositionmkl@alglib_impl@@YA_NPEAUae_matrix@1@_J11PEAUae_vector@1@20PEA_JPEAUae_state@1@@Z
	 ?rmatrixinternaltrevcmkl@alglib_impl@@YA_NPEAUae_matrix@1@_J1100PEA_J2PEAUae_state@1@@Z
	 ?rmatrixlefttrsmf@alglib_impl@@YA_N_J0PEAUae_matrix@1@00_N20100PEAUae_state@1@@Z
	 ?rmatrixlefttrsmmkl@alglib_impl@@YA_N_J0PEAUae_matrix@1@00_N20100PEAUae_state@1@@Z
	 ?rmatrixmvf@alglib_impl@@YA_N_J0PEAUae_matrix@1@000PEAUae_vector@1@020PEAUae_state@1@@Z
	 ?rmatrixplumkl@alglib_impl@@YA_NPEAUae_matrix@1@_J11PEAUae_vector@1@PEAUae_state@1@@Z
	 ?rmatrixrank1f@alglib_impl@@YA_N_J0PEAUae_matrix@1@00PEAUae_vector@1@020PEAUae_state@1@@Z
	 ?rmatrixresize@alglib_impl@@YAXPEAUae_matrix@1@_J1PEAUae_state@1@@Z
	 ?rmatrixrighttrsmf@alglib_impl@@YA_N_J0PEAUae_matrix@1@00_N20100PEAUae_state@1@@Z
	 ?rmatrixrighttrsmmkl@alglib_impl@@YA_N_J0PEAUae_matrix@1@00_N20100PEAUae_state@1@@Z
	 ?rmatrixscaledtrsafesolve@alglib_impl@@YA_NPEAUae_matrix@1@N_JPEAUae_vector@1@_N13NPEAUae_state@1@@Z
	 ?rmatrixsetlengthatleast@alglib_impl@@YAXPEAUae_matrix@1@_J1PEAUae_state@1@@Z
	 ?rmatrixsyrkf@alglib_impl@@YA_N_J0NPEAUae_matrix@1@000N100_NPEAUae_state@1@@Z
	 ?rmatrixsyrkmkl@alglib_impl@@YA_N_J0NPEAUae_matrix@1@000N100_NPEAUae_state@1@@Z
	 ?rmatrixtrsafesolve@alglib_impl@@YAXPEAUae_matrix@1@_JPEAUae_vector@1@PEAN_N44PEAUae_state@1@@Z
	 ?rowidxabsmax@alglib_impl@@YA_JPEAUae_matrix@1@_J11PEAUae_state@1@@Z
	 ?rvectorsetlengthatleast@alglib_impl@@YAXPEAUae_vector@1@_JPEAUae_state@1@@Z
	 ?safeminposrv@alglib_impl@@YANNNNPEAUae_state@1@@Z
	 ?safepythag2@alglib_impl@@YANNNPEAUae_state@1@@Z
	 ?safepythag3@alglib_impl@@YANNNNPEAUae_state@1@@Z
	 ?saferdiv@alglib_impl@@YA_JNNPEANPEAUae_state@1@@Z
	 ?safesolvetriangular@alglib_impl@@YAXPEAUae_matrix@1@_JPEAUae_vector@1@PEAN_N4442PEAUae_state@1@@Z
	 ?serializecomplex@alglib_impl@@YAXPEAUae_serializer@1@Uae_complex@1@PEAUae_state@1@@Z
	 ?serializeintegerarray@alglib_impl@@YAXPEAUae_serializer@1@PEAUae_vector@1@_JPEAUae_state@1@@Z
	 ?serializerealarray@alglib_impl@@YAXPEAUae_serializer@1@PEAUae_vector@1@_JPEAUae_state@1@@Z
	 ?serializerealmatrix@alglib_impl@@YAXPEAUae_serializer@1@PEAUae_matrix@1@_J2PEAUae_state@1@@Z
	 ?seterrorflag@alglib_impl@@YA_NPEA_N_NPEAUae_state@1@@Z
	 ?seterrorflagdiff@alglib_impl@@YA_NPEA_NNNNNPEAUae_state@1@@Z
	 ?smatrixtdevdmkl@alglib_impl@@YA_NPEAUae_vector@1@0_J1PEAUae_matrix@1@PEA_NPEAUae_state@1@@Z
	 ?smatrixtdmkl@alglib_impl@@YA_NPEAUae_matrix@1@_J_NPEAUae_vector@1@33PEAUae_state@1@@Z
	 ?smatrixtdunpackqmkl@alglib_impl@@YA_NPEAUae_matrix@1@_J_NPEAUae_vector@1@0PEAUae_state@1@@Z
	 ?spdmatrixcholeskymkl@alglib_impl@@YA_NPEAUae_matrix@1@_J1_NPEA_NPEAUae_state@1@@Z
	 ?splitlength@alglib_impl@@YAX_J0PEA_J1PEAUae_state@1@@Z
	 ?splitlengtheven@alglib_impl@@YAX_JPEA_J1PEAUae_state@1@@Z
	 ?swapi@alglib_impl@@YAXPEA_J0PEAUae_state@1@@Z
	 ?swapr@alglib_impl@@YAXPEAN0PEAUae_state@1@@Z
	 ?symmetricmatrixvectormultiply@alglib_impl@@YAXPEAUae_matrix@1@_N_J2PEAUae_vector@1@N3PEAUae_state@1@@Z
	 ?symmetricrank2update@alglib_impl@@YAXPEAUae_matrix@1@_N_J2PEAUae_vector@1@33NPEAUae_state@1@@Z
	 ?tagheappopi@alglib_impl@@YAXPEAUae_vector@1@0PEA_JPEAUae_state@1@@Z
	 ?tagheappushi@alglib_impl@@YAXPEAUae_vector@1@0PEA_JN_JPEAUae_state@1@@Z
	 ?tagheapreplacetopi@alglib_impl@@YAXPEAUae_vector@1@0_JN1PEAUae_state@1@@Z
	 ?tagsort@alglib_impl@@YAXPEAUae_vector@1@_J00PEAUae_state@1@@Z
	 ?tagsortbuf@alglib_impl@@YAXPEAUae_vector@1@_J00PEAUapbuffers@1@PEAUae_state@1@@Z
	 ?tagsortfast@alglib_impl@@YAXPEAUae_vector@1@0_JPEAUae_state@1@@Z
	 ?tagsortfasti@alglib_impl@@YAXPEAUae_vector@1@000_JPEAUae_state@1@@Z
	 ?tagsortfastr@alglib_impl@@YAXPEAUae_vector@1@000_JPEAUae_state@1@@Z
	 ?tagsortmiddleir@alglib_impl@@YAXPEAUae_vector@1@0_J1PEAUae_state@1@@Z
	 ?taskgenint1d@alglib_impl@@YAXNN_JPEAUae_vector@1@1PEAUae_state@1@@Z
	 ?taskgenint1dcheb1@alglib_impl@@YAXNN_JPEAUae_vector@1@1PEAUae_state@1@@Z
	 ?taskgenint1dcheb2@alglib_impl@@YAXNN_JPEAUae_vector@1@1PEAUae_state@1@@Z
	 ?taskgenint1dequidist@alglib_impl@@YAXNN_JPEAUae_vector@1@1PEAUae_state@1@@Z
	 ?touchint@alglib_impl@@YAXPEA_JPEAUae_state@1@@Z
	 ?touchreal@alglib_impl@@YAXPEANPEAUae_state@1@@Z
	 ?unserializecomplex@alglib_impl@@YA?AUae_complex@1@PEAUae_serializer@1@PEAUae_state@1@@Z
	 ?unserializeintegerarray@alglib_impl@@YAXPEAUae_serializer@1@PEAUae_vector@1@PEAUae_state@1@@Z
	 ?unserializerealarray@alglib_impl@@YAXPEAUae_serializer@1@PEAUae_vector@1@PEAUae_state@1@@Z
	 ?unserializerealmatrix@alglib_impl@@YAXPEAUae_serializer@1@PEAUae_matrix@1@PEAUae_state@1@@Z
	 ?upperbound@alglib_impl@@YA_JPEAUae_vector@1@_JNPEAUae_state@1@@Z
	 ?upperhessenberg1norm@alglib_impl@@YANPEAUae_matrix@1@_J111PEAUae_vector@1@PEAUae_state@1@@Z
	 ?upperhessenbergschurdecomposition@alglib_impl@@YA_NPEAUae_matrix@1@_J0PEAUae_state@1@@Z
	 ?vectoridxabsmax@alglib_impl@@YA_JPEAUae_vector@1@_J1PEAUae_state@1@@Z
	 ?vectornorm2@alglib_impl@@YANPEAUae_vector@1@_J1PEAUae_state@1@@Z
	 ?xcdot@alglib_impl@@YAXPEAUae_vector@1@0_J0PEAUae_complex@1@PEANPEAUae_state@1@@Z
	 ?xdot@alglib_impl@@YAXPEAUae_vector@1@0_J0PEAN2PEAUae_state@1@@Z
	 ??_7_hqrndstate_owner@alglib@@6B@
	 ??_7_kdtree_owner@alglib@@6B@
	 ??_7_xdebugrecord1_owner@alglib@@6B@
	 ??_7hqrndstate@alglib@@6B@
	 ??_7kdtree@alglib@@6B@
	 ??_7xdebugrecord1@alglib@@6B@
	 ??_R0?AV_hqrndstate_owner@alglib@@@8
	 ??_R0?AV_kdtree_owner@alglib@@@8
	 ??_R0?AV_xdebugrecord1_owner@alglib@@@8
	 ??_R0?AVhqrndstate@alglib@@@8
	 ??_R0?AVkdtree@alglib@@@8
	 ??_R0?AVxdebugrecord1@alglib@@@8
	 ??_R1A@?0A@EA@_hqrndstate_owner@alglib@@8
	 ??_R1A@?0A@EA@_kdtree_owner@alglib@@8
	 ??_R1A@?0A@EA@_xdebugrecord1_owner@alglib@@8
	 ??_R1A@?0A@EA@hqrndstate@alglib@@8
	 ??_R1A@?0A@EA@kdtree@alglib@@8
	 ??_R1A@?0A@EA@xdebugrecord1@alglib@@8
	 ??_R2_hqrndstate_owner@alglib@@8
	 ??_R2_kdtree_owner@alglib@@8
	 ??_R2_xdebugrecord1_owner@alglib@@8
	 ??_R2hqrndstate@alglib@@8
	 ??_R2kdtree@alglib@@8
	 ??_R2xdebugrecord1@alglib@@8
	 ??_R3_hqrndstate_owner@alglib@@8
	 ??_R3_kdtree_owner@alglib@@8
	 ??_R3_xdebugrecord1_owner@alglib@@8
	 ??_R3hqrndstate@alglib@@8
	 ??_R3kdtree@alglib@@8
	 ??_R3xdebugrecord1@alglib@@8
	 ??_R4_hqrndstate_owner@alglib@@6B@
	 ??_R4_kdtree_owner@alglib@@6B@
	 ??_R4_xdebugrecord1_owner@alglib@@6B@
	 ??_R4hqrndstate@alglib@@6B@
	 ??_R4kdtree@alglib@@6B@
	 ??_R4xdebugrecord1@alglib@@6B@
	 ??0_hqrndstate_owner@alglib@@QEAA@AEBV01@@Z
	 ??0_hqrndstate_owner@alglib@@QEAA@XZ
	 ??0_kdtree_owner@alglib@@QEAA@AEBV01@@Z
	 ??0_kdtree_owner@alglib@@QEAA@XZ
	 ??0_xdebugrecord1_owner@alglib@@QEAA@AEBV01@@Z
	 ??0_xdebugrecord1_owner@alglib@@QEAA@XZ
	 ??0ap_error@alglib@@QEAA@AEBV01@@Z
	 ??0hqrndstate@alglib@@QEAA@AEBV01@@Z
	 ??0hqrndstate@alglib@@QEAA@XZ
	 ??0kdtree@alglib@@QEAA@AEBV01@@Z
	 ??0kdtree@alglib@@QEAA@XZ
	 ??0xdebugrecord1@alglib@@QEAA@AEBV01@@Z
	 ??0xdebugrecord1@alglib@@QEAA@XZ
	 ??1_hqrndstate_owner@alglib@@UEAA@XZ
	 ??1_kdtree_owner@alglib@@UEAA@XZ
	 ??1_xdebugrecord1_owner@alglib@@UEAA@XZ
	 ??1ap_error@alglib@@QEAA@XZ
	 ??1hqrndstate@alglib@@UEAA@XZ
	 ??1kdtree@alglib@@UEAA@XZ
	 ??1xdebugrecord1@alglib@@UEAA@XZ
	 ??4_hqrndstate_owner@alglib@@QEAAAEAV01@AEBV01@@Z
	 ??4_kdtree_owner@alglib@@QEAAAEAV01@AEBV01@@Z
	 ??4_xdebugrecord1_owner@alglib@@QEAAAEAV01@AEBV01@@Z
	 ??4hqrndstate@alglib@@QEAAAEAV01@AEBV01@@Z
	 ??4kdtree@alglib@@QEAAAEAV01@AEBV01@@Z
	 ??4xdebugrecord1@alglib@@QEAAAEAV01@AEBV01@@Z
	 ?_hqrndstate_clear@alglib_impl@@YAXPEAX@Z
	 ?_hqrndstate_destroy@alglib_impl@@YAXPEAX@Z
	 ?_hqrndstate_init@alglib_impl@@YAXPEAXPEAUae_state@1@@Z
	 ?_hqrndstate_init_copy@alglib_impl@@YAXPEAX0PEAUae_state@1@@Z
	 ?_kdtree_clear@alglib_impl@@YAXPEAX@Z
	 ?_kdtree_destroy@alglib_impl@@YAXPEAX@Z
	 ?_kdtree_init@alglib_impl@@YAXPEAXPEAUae_state@1@@Z
	 ?_kdtree_init_copy@alglib_impl@@YAXPEAX0PEAUae_state@1@@Z
	 ?_xdebugrecord1_clear@alglib_impl@@YAXPEAX@Z
	 ?_xdebugrecord1_destroy@alglib_impl@@YAXPEAX@Z
	 ?_xdebugrecord1_init@alglib_impl@@YAXPEAXPEAUae_state@1@@Z
	 ?_xdebugrecord1_init_copy@alglib_impl@@YAXPEAX0PEAUae_state@1@@Z
	 ?c_ptr@_hqrndstate_owner@alglib@@QEAAPEAUhqrndstate@alglib_impl@@XZ
	 ?c_ptr@_hqrndstate_owner@alglib@@QEBAPEAUhqrndstate@alglib_impl@@XZ
	 ?c_ptr@_kdtree_owner@alglib@@QEAAPEAUkdtree@alglib_impl@@XZ
	 ?c_ptr@_kdtree_owner@alglib@@QEBAPEAUkdtree@alglib_impl@@XZ
	 ?c_ptr@_xdebugrecord1_owner@alglib@@QEAAPEAUxdebugrecord1@alglib_impl@@XZ
	 ?c_ptr@_xdebugrecord1_owner@alglib@@QEBAPEAUxdebugrecord1@alglib_impl@@XZ
	 ?hqrndcontinuous@alglib@@YANAEBVhqrndstate@1@AEBVreal_1d_array@1@_J@Z
	 ?hqrndcontinuous@alglib_impl@@YANPEAUhqrndstate@1@PEAUae_vector@1@_JPEAUae_state@1@@Z
	 ?hqrnddiscrete@alglib@@YANAEBVhqrndstate@1@AEBVreal_1d_array@1@_J@Z
	 ?hqrnddiscrete@alglib_impl@@YANPEAUhqrndstate@1@PEAUae_vector@1@_JPEAUae_state@1@@Z
	 ?hqrndexponential@alglib@@YANAEBVhqrndstate@1@N@Z
	 ?hqrndexponential@alglib_impl@@YANPEAUhqrndstate@1@NPEAUae_state@1@@Z
	 ?hqrndnormal@alglib@@YANAEBVhqrndstate@1@@Z
	 ?hqrndnormal@alglib_impl@@YANPEAUhqrndstate@1@PEAUae_state@1@@Z
	 ?hqrndnormal2@alglib@@YAXAEBVhqrndstate@1@AEAN1@Z
	 ?hqrndnormal2@alglib_impl@@YAXPEAUhqrndstate@1@PEAN1PEAUae_state@1@@Z
	 ?hqrndrandomize@alglib@@YAXAEAVhqrndstate@1@@Z
	 ?hqrndrandomize@alglib_impl@@YAXPEAUhqrndstate@1@PEAUae_state@1@@Z
	 ?hqrndseed@alglib@@YAX_J0AEAVhqrndstate@1@@Z
	 ?hqrndseed@alglib_impl@@YAX_J0PEAUhqrndstate@1@PEAUae_state@1@@Z
	 ?hqrnduniformi@alglib@@YA_JAEBVhqrndstate@1@_J@Z
	 ?hqrnduniformi@alglib_impl@@YA_JPEAUhqrndstate@1@_JPEAUae_state@1@@Z
	 ?hqrnduniformr@alglib@@YANAEBVhqrndstate@1@@Z
	 ?hqrnduniformr@alglib_impl@@YANPEAUhqrndstate@1@PEAUae_state@1@@Z
	 ?hqrndunit2@alglib@@YAXAEBVhqrndstate@1@AEAN1@Z
	 ?hqrndunit2@alglib_impl@@YAXPEAUhqrndstate@1@PEAN1PEAUae_state@1@@Z
	 ?kdtreealloc@alglib_impl@@YAXPEAUae_serializer@1@PEAUkdtree@1@PEAUae_state@1@@Z
	 ?kdtreebuild@alglib@@YAXAEBVreal_2d_array@1@_J111AEAVkdtree@1@@Z
	 ?kdtreebuild@alglib@@YAXAEBVreal_2d_array@1@_J11AEAVkdtree@1@@Z
	 ?kdtreebuild@alglib_impl@@YAXPEAUae_matrix@1@_J111PEAUkdtree@1@PEAUae_state@1@@Z
	 ?kdtreebuildtagged@alglib@@YAXAEBVreal_2d_array@1@AEBVinteger_1d_array@1@_J222AEAVkdtree@1@@Z
	 ?kdtreebuildtagged@alglib@@YAXAEBVreal_2d_array@1@AEBVinteger_1d_array@1@_J22AEAVkdtree@1@@Z
	 ?kdtreebuildtagged@alglib_impl@@YAXPEAUae_matrix@1@PEAUae_vector@1@_J222PEAUkdtree@1@PEAUae_state@1@@Z
	 ?kdtreequeryaknn@alglib@@YA_JAEBVkdtree@1@AEBVreal_1d_array@1@_J_NN@Z
	 ?kdtreequeryaknn@alglib@@YA_JAEBVkdtree@1@AEBVreal_1d_array@1@_JN@Z
	 ?kdtreequeryaknn@alglib_impl@@YA_JPEAUkdtree@1@PEAUae_vector@1@_J_NNPEAUae_state@1@@Z
	 ?kdtreequeryknn@alglib@@YA_JAEBVkdtree@1@AEBVreal_1d_array@1@_J@Z
	 ?kdtreequeryknn@alglib@@YA_JAEBVkdtree@1@AEBVreal_1d_array@1@_J_N@Z
	 ?kdtreequeryknn@alglib_impl@@YA_JPEAUkdtree@1@PEAUae_vector@1@_J_NPEAUae_state@1@@Z
	 ?kdtreequeryresultsdistances@alglib@@YAXAEBVkdtree@1@AEAVreal_1d_array@1@@Z
	 ?kdtreequeryresultsdistances@alglib_impl@@YAXPEAUkdtree@1@PEAUae_vector@1@PEAUae_state@1@@Z
	 ?kdtreequeryresultsdistancesi@alglib@@YAXAEBVkdtree@1@AEAVreal_1d_array@1@@Z
	 ?kdtreequeryresultsdistancesi@alglib_impl@@YAXPEAUkdtree@1@PEAUae_vector@1@PEAUae_state@1@@Z
	 ?kdtreequeryresultstags@alglib@@YAXAEBVkdtree@1@AEAVinteger_1d_array@1@@Z
	 ?kdtreequeryresultstags@alglib_impl@@YAXPEAUkdtree@1@PEAUae_vector@1@PEAUae_state@1@@Z
	 ?kdtreequeryresultstagsi@alglib@@YAXAEBVkdtree@1@AEAVinteger_1d_array@1@@Z
	 ?kdtreequeryresultstagsi@alglib_impl@@YAXPEAUkdtree@1@PEAUae_vector@1@PEAUae_state@1@@Z
	 ?kdtreequeryresultsx@alglib@@YAXAEBVkdtree@1@AEAVreal_2d_array@1@@Z
	 ?kdtreequeryresultsx@alglib_impl@@YAXPEAUkdtree@1@PEAUae_matrix@1@PEAUae_state@1@@Z
	 ?kdtreequeryresultsxi@alglib@@YAXAEBVkdtree@1@AEAVreal_2d_array@1@@Z
	 ?kdtreequeryresultsxi@alglib_impl@@YAXPEAUkdtree@1@PEAUae_matrix@1@PEAUae_state@1@@Z
	 ?kdtreequeryresultsxy@alglib@@YAXAEBVkdtree@1@AEAVreal_2d_array@1@@Z
	 ?kdtreequeryresultsxy@alglib_impl@@YAXPEAUkdtree@1@PEAUae_matrix@1@PEAUae_state@1@@Z
	 ?kdtreequeryresultsxyi@alglib@@YAXAEBVkdtree@1@AEAVreal_2d_array@1@@Z
	 ?kdtreequeryresultsxyi@alglib_impl@@YAXPEAUkdtree@1@PEAUae_matrix@1@PEAUae_state@1@@Z
	 ?kdtreequeryrnn@alglib@@YA_JAEBVkdtree@1@AEBVreal_1d_array@1@N@Z
	 ?kdtreequeryrnn@alglib@@YA_JAEBVkdtree@1@AEBVreal_1d_array@1@N_N@Z
	 ?kdtreequeryrnn@alglib_impl@@YA_JPEAUkdtree@1@PEAUae_vector@1@N_NPEAUae_state@1@@Z
	 ?kdtreeserialize@alglib@@YAXAEAVkdtree@1@AEAV?$basic_string@DU?$char_traits@D@std@@V?$allocator@D@2@@std@@@Z
	 ?kdtreeserialize@alglib_impl@@YAXPEAUae_serializer@1@PEAUkdtree@1@PEAUae_state@1@@Z
	 ?kdtreeunserialize@alglib@@YAXAEAV?$basic_string@DU?$char_traits@D@std@@V?$allocator@D@2@@std@@AEAVkdtree@1@@Z
	 ?kdtreeunserialize@alglib_impl@@YAXPEAUae_serializer@1@PEAUkdtree@1@PEAUae_state@1@@Z
	 ?xdebugb1appendcopy@alglib@@YAXAEAVboolean_1d_array@1@@Z
	 ?xdebugb1appendcopy@alglib_impl@@YAXPEAUae_vector@1@PEAUae_state@1@@Z
	 ?xdebugb1count@alglib@@YA_JAEBVboolean_1d_array@1@@Z
	 ?xdebugb1count@alglib_impl@@YA_JPEAUae_vector@1@PEAUae_state@1@@Z
	 ?xdebugb1not@alglib@@YAXAEBVboolean_1d_array@1@@Z
	 ?xdebugb1not@alglib_impl@@YAXPEAUae_vector@1@PEAUae_state@1@@Z
	 ?xdebugb1outeven@alglib@@YAX_JAEAVboolean_1d_array@1@@Z
	 ?xdebugb1outeven@alglib_impl@@YAX_JPEAUae_vector@1@PEAUae_state@1@@Z
	 ?xdebugb2count@alglib@@YA_JAEBVboolean_2d_array@1@@Z
	 ?xdebugb2count@alglib_impl@@YA_JPEAUae_matrix@1@PEAUae_state@1@@Z
	 ?xdebugb2not@alglib@@YAXAEBVboolean_2d_array@1@@Z
	 ?xdebugb2not@alglib_impl@@YAXPEAUae_matrix@1@PEAUae_state@1@@Z
	 ?xdebugb2outsin@alglib@@YAX_J0AEAVboolean_2d_array@1@@Z
	 ?xdebugb2outsin@alglib_impl@@YAX_J0PEAUae_matrix@1@PEAUae_state@1@@Z
	 ?xdebugb2transpose@alglib@@YAXAEAVboolean_2d_array@1@@Z
	 ?xdebugb2transpose@alglib_impl@@YAXPEAUae_matrix@1@PEAUae_state@1@@Z
	 ?xdebugc1appendcopy@alglib@@YAXAEAVcomplex_1d_array@1@@Z
	 ?xdebugc1appendcopy@alglib_impl@@YAXPEAUae_vector@1@PEAUae_state@1@@Z
	 ?xdebugc1neg@alglib@@YAXAEBVcomplex_1d_array@1@@Z
	 ?xdebugc1neg@alglib_impl@@YAXPEAUae_vector@1@PEAUae_state@1@@Z
	 ?xdebugc1outeven@alglib@@YAX_JAEAVcomplex_1d_array@1@@Z
	 ?xdebugc1outeven@alglib_impl@@YAX_JPEAUae_vector@1@PEAUae_state@1@@Z
	 ?xdebugc1sum@alglib@@YA?AVcomplex@1@AEBVcomplex_1d_array@1@@Z
	 ?xdebugc1sum@alglib_impl@@YA?AUae_complex@1@PEAUae_vector@1@PEAUae_state@1@@Z
	 ?xdebugc2neg@alglib@@YAXAEBVcomplex_2d_array@1@@Z
	 ?xdebugc2neg@alglib_impl@@YAXPEAUae_matrix@1@PEAUae_state@1@@Z
	 ?xdebugc2outsincos@alglib@@YAX_J0AEAVcomplex_2d_array@1@@Z
	 ?xdebugc2outsincos@alglib_impl@@YAX_J0PEAUae_matrix@1@PEAUae_state@1@@Z
	 ?xdebugc2sum@alglib@@YA?AVcomplex@1@AEBVcomplex_2d_array@1@@Z
	 ?xdebugc2sum@alglib_impl@@YA?AUae_complex@1@PEAUae_matrix@1@PEAUae_state@1@@Z
	 ?xdebugc2transpose@alglib@@YAXAEAVcomplex_2d_array@1@@Z
	 ?xdebugc2transpose@alglib_impl@@YAXPEAUae_matrix@1@PEAUae_state@1@@Z
	 ?xdebugi1appendcopy@alglib@@YAXAEAVinteger_1d_array@1@@Z
	 ?xdebugi1appendcopy@alglib_impl@@YAXPEAUae_vector@1@PEAUae_state@1@@Z
	 ?xdebugi1neg@alglib@@YAXAEBVinteger_1d_array@1@@Z
	 ?xdebugi1neg@alglib_impl@@YAXPEAUae_vector@1@PEAUae_state@1@@Z
	 ?xdebugi1outeven@alglib@@YAX_JAEAVinteger_1d_array@1@@Z
	 ?xdebugi1outeven@alglib_impl@@YAX_JPEAUae_vector@1@PEAUae_state@1@@Z
	 ?xdebugi1sum@alglib@@YA_JAEBVinteger_1d_array@1@@Z
	 ?xdebugi1sum@alglib_impl@@YA_JPEAUae_vector@1@PEAUae_state@1@@Z
	 ?xdebugi2neg@alglib@@YAXAEBVinteger_2d_array@1@@Z
	 ?xdebugi2neg@alglib_impl@@YAXPEAUae_matrix@1@PEAUae_state@1@@Z
	 ?xdebugi2outsin@alglib@@YAX_J0AEAVinteger_2d_array@1@@Z
	 ?xdebugi2outsin@alglib_impl@@YAX_J0PEAUae_matrix@1@PEAUae_state@1@@Z
	 ?xdebugi2sum@alglib@@YA_JAEBVinteger_2d_array@1@@Z
	 ?xdebugi2sum@alglib_impl@@YA_JPEAUae_matrix@1@PEAUae_state@1@@Z
	 ?xdebugi2transpose@alglib@@YAXAEAVinteger_2d_array@1@@Z
	 ?xdebugi2transpose@alglib_impl@@YAXPEAUae_matrix@1@PEAUae_state@1@@Z
	 ?xdebuginitrecord1@alglib@@YAXAEAVxdebugrecord1@1@@Z
	 ?xdebuginitrecord1@alglib_impl@@YAXPEAUxdebugrecord1@1@PEAUae_state@1@@Z
	 ?xdebugmaskedbiasedproductsum@alglib@@YAN_J0AEBVreal_2d_array@1@1AEBVboolean_2d_array@1@@Z
	 ?xdebugmaskedbiasedproductsum@alglib_impl@@YAN_J0PEAUae_matrix@1@11PEAUae_state@1@@Z
	 ?xdebugr1appendcopy@alglib@@YAXAEAVreal_1d_array@1@@Z
	 ?xdebugr1appendcopy@alglib_impl@@YAXPEAUae_vector@1@PEAUae_state@1@@Z
	 ?xdebugr1neg@alglib@@YAXAEBVreal_1d_array@1@@Z
	 ?xdebugr1neg@alglib_impl@@YAXPEAUae_vector@1@PEAUae_state@1@@Z
	 ?xdebugr1outeven@alglib@@YAX_JAEAVreal_1d_array@1@@Z
	 ?xdebugr1outeven@alglib_impl@@YAX_JPEAUae_vector@1@PEAUae_state@1@@Z
	 ?xdebugr1sum@alglib@@YANAEBVreal_1d_array@1@@Z
	 ?xdebugr1sum@alglib_impl@@YANPEAUae_vector@1@PEAUae_state@1@@Z
	 ?xdebugr2neg@alglib@@YAXAEBVreal_2d_array@1@@Z
	 ?xdebugr2neg@alglib_impl@@YAXPEAUae_matrix@1@PEAUae_state@1@@Z
	 ?xdebugr2outsin@alglib@@YAX_J0AEAVreal_2d_array@1@@Z
	 ?xdebugr2outsin@alglib_impl@@YAX_J0PEAUae_matrix@1@PEAUae_state@1@@Z
	 ?xdebugr2sum@alglib@@YANAEBVreal_2d_array@1@@Z
	 ?xdebugr2sum@alglib_impl@@YANPEAUae_matrix@1@PEAUae_state@1@@Z
	 ?xdebugr2transpose@alglib@@YAXAEAVreal_2d_array@1@@Z
	 ?xdebugr2transpose@alglib_impl@@YAXPEAUae_matrix@1@PEAUae_state@1@@Z
	 ??_0complex@alglib@@QEAAAEAV01@AEBN@Z
	 ??_0complex@alglib@@QEAAAEAV01@AEBV01@@Z
	 ??_7ae_matrix_wrapper@alglib@@6B@
	 ??_7ae_vector_wrapper@alglib@@6B@
	 ??_7boolean_1d_array@alglib@@6B@
	 ??_7boolean_2d_array@alglib@@6B@
	 ??_7complex_1d_array@alglib@@6B@
	 ??_7complex_2d_array@alglib@@6B@
	 ??_7integer_1d_array@alglib@@6B@
	 ??_7integer_2d_array@alglib@@6B@
	 ??_7real_1d_array@alglib@@6B@
	 ??_7real_2d_array@alglib@@6B@
	 ??_R0?AVae_matrix_wrapper@alglib@@@8
	 ??_R0?AVae_vector_wrapper@alglib@@@8
	 ??_R0?AVboolean_1d_array@alglib@@@8
	 ??_R0?AVboolean_2d_array@alglib@@@8
	 ??_R0?AVcomplex_1d_array@alglib@@@8
	 ??_R0?AVcomplex_2d_array@alglib@@@8
	 ??_R0?AVinteger_1d_array@alglib@@@8
	 ??_R0?AVinteger_2d_array@alglib@@@8
	 ??_R0?AVreal_1d_array@alglib@@@8
	 ??_R0?AVreal_2d_array@alglib@@@8
	 ??_R1A@?0A@EA@ae_matrix_wrapper@alglib@@8
	 ??_R1A@?0A@EA@ae_vector_wrapper@alglib@@8
	 ??_R1A@?0A@EA@boolean_1d_array@alglib@@8
	 ??_R1A@?0A@EA@boolean_2d_array@alglib@@8
	 ??_R1A@?0A@EA@complex_1d_array@alglib@@8
	 ??_R1A@?0A@EA@complex_2d_array@alglib@@8
	 ??_R1A@?0A@EA@integer_1d_array@alglib@@8
	 ??_R1A@?0A@EA@integer_2d_array@alglib@@8
	 ??_R1A@?0A@EA@real_1d_array@alglib@@8
	 ??_R1A@?0A@EA@real_2d_array@alglib@@8
	 ??_R2ae_matrix_wrapper@alglib@@8
	 ??_R2ae_vector_wrapper@alglib@@8
	 ??_R2boolean_1d_array@alglib@@8
	 ??_R2boolean_2d_array@alglib@@8
	 ??_R2complex_1d_array@alglib@@8
	 ??_R2complex_2d_array@alglib@@8
	 ??_R2integer_1d_array@alglib@@8
	 ??_R2integer_2d_array@alglib@@8
	 ??_R2real_1d_array@alglib@@8
	 ??_R2real_2d_array@alglib@@8
	 ??_R3ae_matrix_wrapper@alglib@@8
	 ??_R3ae_vector_wrapper@alglib@@8
	 ??_R3boolean_1d_array@alglib@@8
	 ??_R3boolean_2d_array@alglib@@8
	 ??_R3complex_1d_array@alglib@@8
	 ??_R3complex_2d_array@alglib@@8
	 ??_R3integer_1d_array@alglib@@8
	 ??_R3integer_2d_array@alglib@@8
	 ??_R3real_1d_array@alglib@@8
	 ??_R3real_2d_array@alglib@@8
	 ??_R4ae_matrix_wrapper@alglib@@6B@
	 ??_R4ae_vector_wrapper@alglib@@6B@
	 ??_R4boolean_1d_array@alglib@@6B@
	 ??_R4boolean_2d_array@alglib@@6B@
	 ??_R4complex_1d_array@alglib@@6B@
	 ??_R4complex_2d_array@alglib@@6B@
	 ??_R4integer_1d_array@alglib@@6B@
	 ??_R4integer_2d_array@alglib@@6B@
	 ??_R4real_1d_array@alglib@@6B@
	 ??_R4real_2d_array@alglib@@6B@
	 ??0ae_matrix_wrapper@alglib@@QEAA@XZ
	 ??0ae_vector_wrapper@alglib@@QEAA@XZ
	 ??0ap_error@alglib@@QEAA@AEBV01@@Z
	 ??0ap_error@alglib@@QEAA@PEBD@Z
	 ??0ap_error@alglib@@QEAA@XZ
	 ??0boolean_1d_array@alglib@@QEAA@AEBV01@@Z
	 ??0boolean_1d_array@alglib@@QEAA@PEAUae_vector@alglib_impl@@@Z
	 ??0boolean_1d_array@alglib@@QEAA@PEBD@Z
	 ??0boolean_1d_array@alglib@@QEAA@XZ
	 ??0boolean_2d_array@alglib@@QEAA@AEBV01@@Z
	 ??0boolean_2d_array@alglib@@QEAA@PEAUae_matrix@alglib_impl@@@Z
	 ??0boolean_2d_array@alglib@@QEAA@PEBD@Z
	 ??0boolean_2d_array@alglib@@QEAA@XZ
	 ??0complex@alglib@@QEAA@AEBN@Z
	 ??0complex@alglib@@QEAA@AEBN0@Z
	 ??0complex@alglib@@QEAA@AEBV01@@Z
	 ??0complex@alglib@@QEAA@XZ
	 ??0complex_1d_array@alglib@@QEAA@AEBV01@@Z
	 ??0complex_1d_array@alglib@@QEAA@PEAUae_vector@alglib_impl@@@Z
	 ??0complex_1d_array@alglib@@QEAA@PEBD@Z
	 ??0complex_1d_array@alglib@@QEAA@XZ
	 ??0complex_2d_array@alglib@@QEAA@AEBV01@@Z
	 ??0complex_2d_array@alglib@@QEAA@PEAUae_matrix@alglib_impl@@@Z
	 ??0complex_2d_array@alglib@@QEAA@PEBD@Z
	 ??0complex_2d_array@alglib@@QEAA@XZ
	 ??0integer_1d_array@alglib@@QEAA@AEBV01@@Z
	 ??0integer_1d_array@alglib@@QEAA@PEAUae_vector@alglib_impl@@@Z
	 ??0integer_1d_array@alglib@@QEAA@PEBD@Z
	 ??0integer_1d_array@alglib@@QEAA@XZ
	 ??0integer_2d_array@alglib@@QEAA@AEBV01@@Z
	 ??0integer_2d_array@alglib@@QEAA@PEAUae_matrix@alglib_impl@@@Z
	 ??0integer_2d_array@alglib@@QEAA@PEBD@Z
	 ??0integer_2d_array@alglib@@QEAA@XZ
	 ??0real_1d_array@alglib@@QEAA@AEBV01@@Z
	 ??0real_1d_array@alglib@@QEAA@PEAUae_vector@alglib_impl@@@Z
	 ??0real_1d_array@alglib@@QEAA@PEBD@Z
	 ??0real_1d_array@alglib@@QEAA@XZ
	 ??0real_2d_array@alglib@@QEAA@AEBV01@@Z
	 ??0real_2d_array@alglib@@QEAA@PEAUae_matrix@alglib_impl@@@Z
	 ??0real_2d_array@alglib@@QEAA@PEBD@Z
	 ??0real_2d_array@alglib@@QEAA@XZ
	 ??1ae_matrix_wrapper@alglib@@UEAA@XZ
	 ??1ae_vector_wrapper@alglib@@UEAA@XZ
	 ??1ap_error@alglib@@QEAA@XZ
	 ??1boolean_1d_array@alglib@@UEAA@XZ
	 ??1boolean_2d_array@alglib@@UEAA@XZ
	 ??1complex_1d_array@alglib@@UEAA@XZ
	 ??1complex_2d_array@alglib@@UEAA@XZ
	 ??1integer_1d_array@alglib@@UEAA@XZ
	 ??1integer_2d_array@alglib@@UEAA@XZ
	 ??1real_1d_array@alglib@@UEAA@XZ
	 ??1real_2d_array@alglib@@UEAA@XZ
	 ??4ae_matrix_wrapper@alglib@@QEAAAEBV01@AEBV01@@Z
	 ??4boolean_1d_array@alglib@@QEAAAEBV01@AEBV01@@Z
	 ??4complex@alglib@@QEAAAEAV01@AEBN@Z
	 ??4complex@alglib@@QEAAAEAV01@AEBV01@@Z
	 ??4complex_1d_array@alglib@@QEAAAEBV01@AEBV01@@Z
	 ??4integer_1d_array@alglib@@QEAAAEBV01@AEBV01@@Z
	 ??4real_1d_array@alglib@@QEAAAEBV01@AEBV01@@Z
	 ??8alglib@@YA?B_NAEBVcomplex@0@0@Z
	 ??9alglib@@YA?B_NAEBVcomplex@0@0@Z
	 ??Aboolean_1d_array@alglib@@QEAAAEA_N_J@Z
	 ??Aboolean_1d_array@alglib@@QEBAAEB_N_J@Z
	 ??Aboolean_2d_array@alglib@@QEAAPEA_N_J@Z
	 ??Aboolean_2d_array@alglib@@QEBAPEB_N_J@Z
	 ??Acomplex_1d_array@alglib@@QEAAAEAVcomplex@1@_J@Z
	 ??Acomplex_1d_array@alglib@@QEBAAEBVcomplex@1@_J@Z
	 ??Acomplex_2d_array@alglib@@QEAAPEAVcomplex@1@_J@Z
	 ??Acomplex_2d_array@alglib@@QEBAPEBVcomplex@1@_J@Z
	 ??Ainteger_1d_array@alglib@@QEAAAEA_J_J@Z
	 ??Ainteger_1d_array@alglib@@QEBAAEB_J_J@Z
	 ??Ainteger_2d_array@alglib@@QEAAPEA_J_J@Z
	 ??Ainteger_2d_array@alglib@@QEBAPEB_J_J@Z
	 ??Areal_1d_array@alglib@@QEAAAEAN_J@Z
	 ??Areal_1d_array@alglib@@QEBAAEBN_J@Z
	 ??Areal_2d_array@alglib@@QEAAPEAN_J@Z
	 ??Areal_2d_array@alglib@@QEBAPEBN_J@Z
	 ??Dalglib@@YA?BVcomplex@0@AEBNAEBV10@@Z
	 ??Dalglib@@YA?BVcomplex@0@AEBV10@0@Z
	 ??Dalglib@@YA?BVcomplex@0@AEBV10@AEBN@Z
	 ??Galglib@@YA?BVcomplex@0@AEBNAEBV10@@Z
	 ??Galglib@@YA?BVcomplex@0@AEBV10@@Z
	 ??Galglib@@YA?BVcomplex@0@AEBV10@0@Z
	 ??Galglib@@YA?BVcomplex@0@AEBV10@AEBN@Z
	 ??Halglib@@YA?BVcomplex@0@AEBNAEBV10@@Z
	 ??Halglib@@YA?BVcomplex@0@AEBV10@@Z
	 ??Halglib@@YA?BVcomplex@0@AEBV10@0@Z
	 ??Halglib@@YA?BVcomplex@0@AEBV10@AEBN@Z
	 ??Kalglib@@YA?BVcomplex@0@AEBNAEBV10@@Z
	 ??Kalglib@@YA?BVcomplex@0@AEBV10@0@Z
	 ??Kalglib@@YA?BVcomplex@0@AEBV10@AEBN@Z
	 ??Rboolean_1d_array@alglib@@QEAAAEA_N_J@Z
	 ??Rboolean_1d_array@alglib@@QEBAAEB_N_J@Z
	 ??Rboolean_2d_array@alglib@@QEAAAEA_N_J0@Z
	 ??Rboolean_2d_array@alglib@@QEBAAEB_N_J0@Z
	 ??Rcomplex_1d_array@alglib@@QEAAAEAVcomplex@1@_J@Z
	 ??Rcomplex_1d_array@alglib@@QEBAAEBVcomplex@1@_J@Z
	 ??Rcomplex_2d_array@alglib@@QEAAAEAVcomplex@1@_J0@Z
	 ??Rcomplex_2d_array@alglib@@QEBAAEBVcomplex@1@_J0@Z
	 ??Rinteger_1d_array@alglib@@QEAAAEA_J_J@Z
	 ??Rinteger_1d_array@alglib@@QEBAAEB_J_J@Z
	 ??Rinteger_2d_array@alglib@@QEAAAEA_J_J0@Z
	 ??Rinteger_2d_array@alglib@@QEBAAEB_J_J0@Z
	 ??Rreal_1d_array@alglib@@QEAAAEAN_J@Z
	 ??Rreal_1d_array@alglib@@QEBAAEBN_J@Z
	 ??Rreal_2d_array@alglib@@QEAAAEAN_J0@Z
	 ??Rreal_2d_array@alglib@@QEBAAEBN_J0@Z
	 ??Xcomplex@alglib@@QEAAAEAV01@AEBN@Z
	 ??Xcomplex@alglib@@QEAAAEAV01@AEBV01@@Z
	 ??Ycomplex@alglib@@QEAAAEAV01@AEBN@Z
	 ??Ycomplex@alglib@@QEAAAEAV01@AEBV01@@Z
	 ??Zcomplex@alglib@@QEAAAEAV01@AEBN@Z
	 ??Zcomplex@alglib@@QEAAAEAV01@AEBV01@@Z
	 ?_alloc_counter@alglib_impl@@3_JA
	 ?_ialglib_cmatrixgemm@alglib_impl@@YA_N_J00Uae_complex@1@PEAU21@00200120@Z
	 ?_ialglib_cmatrixherk@alglib_impl@@YA_N_J0NPEAUae_complex@1@00N10_N@Z
	 ?_ialglib_cmatrixlefttrsm@alglib_impl@@YA_N_J0PEAUae_complex@1@0_N2010@Z
	 ?_ialglib_cmatrixrank1@alglib_impl@@YA_N_J0PEAUae_complex@1@011@Z
	 ?_ialglib_cmatrixrighttrsm@alglib_impl@@YA_N_J0PEAUae_complex@1@0_N2010@Z
	 ?_ialglib_cmv@alglib_impl@@YAX_J0PEBN1PEAUae_complex@1@PEAN0U21@4@Z
	 ?_ialglib_cmv_sse2@alglib_impl@@YAX_J0PEBN1PEAUae_complex@1@PEAN0U21@4@Z
	 ?_ialglib_i_cmatrixgemmf@alglib_impl@@YA_N_J00Uae_complex@1@PEAUae_matrix@1@00020001200@Z
	 ?_ialglib_i_cmatrixherkf@alglib_impl@@YA_N_J0NPEAUae_matrix@1@000N100_N@Z
	 ?_ialglib_i_cmatrixlefttrsmf@alglib_impl@@YA_N_J0PEAUae_matrix@1@00_N20100@Z
	 ?_ialglib_i_cmatrixrank1f@alglib_impl@@YA_N_J0PEAUae_matrix@1@00PEAUae_vector@1@020@Z
	 ?_ialglib_i_cmatrixrighttrsmf@alglib_impl@@YA_N_J0PEAUae_matrix@1@00_N20100@Z
	 ?_ialglib_i_rmatrixgemmf@alglib_impl@@YA_N_J00NPEAUae_matrix@1@0001000N100@Z
	 ?_ialglib_i_rmatrixlefttrsmf@alglib_impl@@YA_N_J0PEAUae_matrix@1@00_N20100@Z
	 ?_ialglib_i_rmatrixrank1f@alglib_impl@@YA_N_J0PEAUae_matrix@1@00PEAUae_vector@1@020@Z
	 ?_ialglib_i_rmatrixrighttrsmf@alglib_impl@@YA_N_J0PEAUae_matrix@1@00_N20100@Z
	 ?_ialglib_i_rmatrixsyrkf@alglib_impl@@YA_N_J0NPEAUae_matrix@1@000N100_N@Z
	 ?_ialglib_mcopyblock@alglib_impl@@YAX_J0PEBN00PEAN@Z
	 ?_ialglib_mcopyblock_complex@alglib_impl@@YAX_J0PEBUae_complex@1@00PEAN@Z
	 ?_ialglib_mcopyblock_sse2@alglib_impl@@YAX_J0PEBN00PEAN@Z
	 ?_ialglib_mcopyunblock@alglib_impl@@YAX_J0PEBN0PEAN0@Z
	 ?_ialglib_mcopyunblock_complex@alglib_impl@@YAX_J0PEBN0PEAUae_complex@1@0@Z
	 ?_ialglib_mm22@alglib_impl@@YAXNPEBN0_JNPEAN11@Z
	 ?_ialglib_mm22_sse2@alglib_impl@@YAXNPEBN0_JNPEAN11@Z
	 ?_ialglib_mm22x2@alglib_impl@@YAXNPEBN00_JNPEAN1@Z
	 ?_ialglib_mm22x2_sse2@alglib_impl@@YAXNPEBN00_JNPEAN1@Z
	 ?_ialglib_mv_32@alglib_impl@@YAXPEBN0PEAN_JNN@Z
	 ?_ialglib_pack_n2@alglib_impl@@YAXPEAN0_J10@Z
	 ?_ialglib_pack_n2_sse2@alglib_impl@@YAXPEAN0_J10@Z
	 ?_ialglib_rmatrixgemm@alglib_impl@@YA_N_J00NPEAN00100N10@Z
	 ?_ialglib_rmatrixlefttrsm@alglib_impl@@YA_N_J0PEAN0_N2010@Z
	 ?_ialglib_rmatrixrank1@alglib_impl@@YA_N_J0PEAN011@Z
	 ?_ialglib_rmatrixrighttrsm@alglib_impl@@YA_N_J0PEAN0_N2010@Z
	 ?_ialglib_rmatrixsyrk@alglib_impl@@YA_N_J0NPEAN00N10_N@Z
	 ?_ialglib_rmv@alglib_impl@@YAX_J0PEBN1PEAN0NN@Z
	 ?_ialglib_rmv_sse2@alglib_impl@@YAX_J0PEBN1PEAN0NN@Z
	 ?_ialglib_vcopy@alglib_impl@@YAX_JPEBN0PEAN0@Z
	 ?_ialglib_vcopy_complex@alglib_impl@@YAX_JPEBUae_complex@1@0PEAN0PEBD@Z
	 ?_ialglib_vcopy_dcomplex@alglib_impl@@YAX_JPEBN0PEAN0PEBD@Z
	 ?_ialglib_vzero@alglib_impl@@YAX_JPEAN0@Z
	 ?_ialglib_vzero_complex@alglib_impl@@YAX_JPEAUae_complex@1@0@Z
	 ?_parse_real_delim@alglib@@YA_NPEBD0PEANPEAPEBD@Z
	 ?_rcommstate_clear@alglib_impl@@YAXPEAUrcommstate@1@@Z
	 ?_rcommstate_destroy@alglib_impl@@YAXPEAUrcommstate@1@@Z
	 ?_rcommstate_init@alglib_impl@@YAXPEAUrcommstate@1@PEAUae_state@1@@Z
	 ?_rcommstate_init_copy@alglib_impl@@YAXPEAUrcommstate@1@0PEAUae_state@1@@Z
	 ?_use_alloc_counter@alglib_impl@@3_NA
	 ?abscomplex@alglib@@YANAEBVcomplex@1@@Z
	 ?ae_acos@alglib_impl@@YANNPEAUae_state@1@@Z
	 ?ae_acquire_lock@alglib_impl@@YAXPEAUae_lock@1@@Z
	 ?ae_align@alglib_impl@@YAPEAXPEAX_K@Z
	 ?ae_asin@alglib_impl@@YANNPEAUae_state@1@@Z
	 ?ae_assert@alglib_impl@@YAX_NPEBDPEAUae_state@1@@Z
	 ?ae_atan@alglib_impl@@YANNPEAUae_state@1@@Z
	 ?ae_atan2@alglib_impl@@YANNNPEAUae_state@1@@Z
	 ?ae_bool2str@alglib_impl@@YAX_NPEADPEAUae_state@1@@Z
	 ?ae_break@alglib_impl@@YAXPEAUae_state@1@W4ae_error_type@1@PEBD@Z
	 ?ae_c_abs@alglib_impl@@YANUae_complex@1@PEAUae_state@1@@Z
	 ?ae_c_add@alglib_impl@@YA?AUae_complex@1@U21@0@Z
	 ?ae_c_add_d@alglib_impl@@YA?AUae_complex@1@U21@N@Z
	 ?ae_c_conj@alglib_impl@@YA?AUae_complex@1@U21@PEAUae_state@1@@Z
	 ?ae_c_d_div@alglib_impl@@YA?AUae_complex@1@NU21@@Z
	 ?ae_c_d_sub@alglib_impl@@YA?AUae_complex@1@NU21@@Z
	 ?ae_c_div@alglib_impl@@YA?AUae_complex@1@U21@0@Z
	 ?ae_c_div_d@alglib_impl@@YA?AUae_complex@1@U21@N@Z
	 ?ae_c_eq@alglib_impl@@YA_NUae_complex@1@0@Z
	 ?ae_c_eq_d@alglib_impl@@YA_NUae_complex@1@N@Z
	 ?ae_c_mul@alglib_impl@@YA?AUae_complex@1@U21@0@Z
	 ?ae_c_mul_d@alglib_impl@@YA?AUae_complex@1@U21@N@Z
	 ?ae_c_neg@alglib_impl@@YA?AUae_complex@1@U21@@Z
	 ?ae_c_neq@alglib_impl@@YA_NUae_complex@1@0@Z
	 ?ae_c_neq_d@alglib_impl@@YA_NUae_complex@1@N@Z
	 ?ae_c_sqr@alglib_impl@@YA?AUae_complex@1@U21@PEAUae_state@1@@Z
	 ?ae_c_sub@alglib_impl@@YA?AUae_complex@1@U21@0@Z
	 ?ae_c_sub_d@alglib_impl@@YA?AUae_complex@1@U21@N@Z
	 ?ae_char2sixbits@alglib_impl@@YA_JD@Z
	 ?ae_complex_from_d@alglib_impl@@YA?AUae_complex@1@N@Z
	 ?ae_complex_from_i@alglib_impl@@YA?AUae_complex@1@_J@Z
	 ?ae_cos@alglib_impl@@YANNPEAUae_state@1@@Z
	 ?ae_cosh@alglib_impl@@YANNPEAUae_state@1@@Z
	 ?ae_cpuid@alglib_impl@@YA_JXZ
	 ?ae_db_attach@alglib_impl@@YAXPEAUae_dyn_block@1@PEAUae_state@1@@Z
	 ?ae_db_free@alglib_impl@@YAXPEAUae_dyn_block@1@@Z
	 ?ae_db_malloc@alglib_impl@@YA_NPEAUae_dyn_block@1@_JPEAUae_state@1@_N@Z
	 ?ae_db_realloc@alglib_impl@@YA_NPEAUae_dyn_block@1@_JPEAUae_state@1@@Z
	 ?ae_db_swap@alglib_impl@@YAXPEAUae_dyn_block@1@0@Z
	 ?ae_double2str@alglib_impl@@YAXNPEADPEAUae_state@1@@Z
	 ?ae_exp@alglib_impl@@YANNPEAUae_state@1@@Z
	 ?ae_fabs@alglib_impl@@YANNPEAUae_state@1@@Z
	 ?ae_force_hermitian@alglib_impl@@YA_NPEAUae_matrix@1@@Z
	 ?ae_force_symmetric@alglib_impl@@YA_NPEAUae_matrix@1@@Z
	 ?ae_foursixbits2threebytes@alglib_impl@@YAXPEB_JPEAE@Z
	 ?ae_fp_eq@alglib_impl@@YA_NNN@Z
	 ?ae_fp_greater@alglib_impl@@YA_NNN@Z
	 ?ae_fp_greater_eq@alglib_impl@@YA_NNN@Z
	 ?ae_fp_less@alglib_impl@@YA_NNN@Z
	 ?ae_fp_less_eq@alglib_impl@@YA_NNN@Z
	 ?ae_fp_neq@alglib_impl@@YA_NNN@Z
	 ?ae_frame_leave@alglib_impl@@YAXPEAUae_state@1@@Z
	 ?ae_frame_make@alglib_impl@@YAXPEAUae_state@1@PEAUae_frame@1@@Z
	 ?ae_free@alglib_impl@@YAXPEAX@Z
	 ?ae_free_lock@alglib_impl@@YAXPEAUae_lock@1@@Z
	 ?ae_get_endianness@alglib_impl@@YA_JXZ
	 ?ae_iabs@alglib_impl@@YA_J_JPEAUae_state@1@@Z
	 ?ae_iceil@alglib_impl@@YA_JNPEAUae_state@1@@Z
	 ?ae_ifloor@alglib_impl@@YA_JNPEAUae_state@1@@Z
	 ?ae_init_lock@alglib_impl@@YAXPEAUae_lock@1@@Z
	 ?ae_int2str@alglib_impl@@YAX_JPEADPEAUae_state@1@@Z
	 ?ae_is_hermitian@alglib_impl@@YA_NPEAUae_matrix@1@@Z
	 ?ae_is_symmetric@alglib_impl@@YA_NPEAUae_matrix@1@@Z
	 ?ae_isfinite@alglib_impl@@YA_NNPEAUae_state@1@@Z
	 ?ae_isfinite_stateless@alglib_impl@@YA_NN_J@Z
	 ?ae_isinf@alglib_impl@@YA_NNPEAUae_state@1@@Z
	 ?ae_isinf_stateless@alglib_impl@@YA_NN_J@Z
	 ?ae_isnan@alglib_impl@@YA_NNPEAUae_state@1@@Z
	 ?ae_isnan_stateless@alglib_impl@@YA_NN_J@Z
	 ?ae_isneginf@alglib_impl@@YA_NNPEAUae_state@1@@Z
	 ?ae_isneginf_stateless@alglib_impl@@YA_NN_J@Z
	 ?ae_isposinf@alglib_impl@@YA_NNPEAUae_state@1@@Z
	 ?ae_isposinf_stateless@alglib_impl@@YA_NN_J@Z
	 ?ae_log@alglib_impl@@YANNPEAUae_state@1@@Z
	 ?ae_malloc@alglib_impl@@YAPEAX_KPEAUae_state@1@@Z
	 ?ae_matrix_attach_to_x@alglib_impl@@YAXPEAUae_matrix@1@PEAUx_matrix@1@PEAUae_state@1@@Z
	 ?ae_matrix_clear@alglib_impl@@YAXPEAUae_matrix@1@@Z
	 ?ae_matrix_destroy@alglib_impl@@YAXPEAUae_matrix@1@@Z
	 ?ae_matrix_init@alglib_impl@@YAXPEAUae_matrix@1@_J11PEAUae_state@1@@Z
	 ?ae_matrix_init_copy@alglib_impl@@YAXPEAUae_matrix@1@0PEAUae_state@1@@Z
	 ?ae_matrix_init_from_x@alglib_impl@@YAXPEAUae_matrix@1@PEAUx_matrix@1@PEAUae_state@1@@Z
	 ?ae_matrix_set_length@alglib_impl@@YA_NPEAUae_matrix@1@_J1PEAUae_state@1@@Z
	 ?ae_matrix_update_row_pointers@alglib_impl@@YAXPEAUae_matrix@1@PEAX@Z
	 ?ae_maxint@alglib_impl@@YA_J_J0PEAUae_state@1@@Z
	 ?ae_maxreal@alglib_impl@@YANNNPEAUae_state@1@@Z
	 ?ae_minint@alglib_impl@@YA_J_J0PEAUae_state@1@@Z
	 ?ae_minreal@alglib_impl@@YANNNPEAUae_state@1@@Z
	 ?ae_misalignment@alglib_impl@@YA_JPEBX_K@Z
	 ?ae_pow@alglib_impl@@YANNNPEAUae_state@1@@Z
	 ?ae_randominteger@alglib_impl@@YA_J_JPEAUae_state@1@@Z
	 ?ae_randomreal@alglib_impl@@YANPEAUae_state@1@@Z
	 ?ae_release_lock@alglib_impl@@YAXPEAUae_lock@1@@Z
	 ?ae_round@alglib_impl@@YA_JNPEAUae_state@1@@Z
	 ?ae_serializer_alloc_entry@alglib_impl@@YAXPEAUae_serializer@1@@Z
	 ?ae_serializer_alloc_start@alglib_impl@@YAXPEAUae_serializer@1@@Z
	 ?ae_serializer_clear@alglib_impl@@YAXPEAUae_serializer@1@@Z
	 ?ae_serializer_get_alloc_size@alglib_impl@@YA_JPEAUae_serializer@1@@Z
	 ?ae_serializer_init@alglib_impl@@YAXPEAUae_serializer@1@@Z
	 ?ae_serializer_serialize_bool@alglib_impl@@YAXPEAUae_serializer@1@_NPEAUae_state@1@@Z
	 ?ae_serializer_serialize_double@alglib_impl@@YAXPEAUae_serializer@1@NPEAUae_state@1@@Z
	 ?ae_serializer_serialize_int@alglib_impl@@YAXPEAUae_serializer@1@_JPEAUae_state@1@@Z
	 ?ae_serializer_sstart_str@alglib_impl@@YAXPEAUae_serializer@1@PEAD@Z
	 ?ae_serializer_sstart_str@alglib_impl@@YAXPEAUae_serializer@1@PEAV?$basic_string@DU?$char_traits@D@std@@V?$allocator@D@2@@std@@@Z
	 ?ae_serializer_stop@alglib_impl@@YAXPEAUae_serializer@1@@Z
	 ?ae_serializer_unserialize_bool@alglib_impl@@YAXPEAUae_serializer@1@PEA_NPEAUae_state@1@@Z
	 ?ae_serializer_unserialize_double@alglib_impl@@YAXPEAUae_serializer@1@PEANPEAUae_state@1@@Z
	 ?ae_serializer_unserialize_int@alglib_impl@@YAXPEAUae_serializer@1@PEA_JPEAUae_state@1@@Z
	 ?ae_serializer_ustart_str@alglib_impl@@YAXPEAUae_serializer@1@PEBD@Z
	 ?ae_serializer_ustart_str@alglib_impl@@YAXPEAUae_serializer@1@PEBV?$basic_string@DU?$char_traits@D@std@@V?$allocator@D@2@@std@@@Z
	 ?ae_shared_pool_clear@alglib_impl@@YAXPEAX@Z
	 ?ae_shared_pool_clear_recycled@alglib_impl@@YAXPEAUae_shared_pool@1@PEAUae_state@1@@Z
	 ?ae_shared_pool_destroy@alglib_impl@@YAXPEAX@Z
	 ?ae_shared_pool_first_recycled@alglib_impl@@YAXPEAUae_shared_pool@1@PEAUae_smart_ptr@1@PEAUae_state@1@@Z
	 ?ae_shared_pool_init@alglib_impl@@YAXPEAXPEAUae_state@1@@Z
	 ?ae_shared_pool_init_copy@alglib_impl@@YAXPEAX0PEAUae_state@1@@Z
	 ?ae_shared_pool_is_initialized@alglib_impl@@YA_NPEAX@Z
	 ?ae_shared_pool_next_recycled@alglib_impl@@YAXPEAUae_shared_pool@1@PEAUae_smart_ptr@1@PEAUae_state@1@@Z
	 ?ae_shared_pool_recycle@alglib_impl@@YAXPEAUae_shared_pool@1@PEAUae_smart_ptr@1@PEAUae_state@1@@Z
	 ?ae_shared_pool_reset@alglib_impl@@YAXPEAUae_shared_pool@1@PEAUae_state@1@@Z
	 ?ae_shared_pool_retrieve@alglib_impl@@YAXPEAUae_shared_pool@1@PEAUae_smart_ptr@1@PEAUae_state@1@@Z
	 ?ae_shared_pool_set_seed@alglib_impl@@YAXPEAUae_shared_pool@1@PEAX_JP6AX1PEAUae_state@1@@ZP6AX113@ZP6AX1@Z3@Z
	 ?ae_sign@alglib_impl@@YA_JNPEAUae_state@1@@Z
	 ?ae_sin@alglib_impl@@YANNPEAUae_state@1@@Z
	 ?ae_sinh@alglib_impl@@YANNPEAUae_state@1@@Z
	 ?ae_sixbits2char@alglib_impl@@YAD_J@Z
	 ?ae_sizeof@alglib_impl@@YA_J_J@Z
	 ?ae_smart_ptr_assign@alglib_impl@@YAXPEAUae_smart_ptr@1@PEAX_N2P6AX1@Z@Z
	 ?ae_smart_ptr_clear@alglib_impl@@YAXPEAX@Z
	 ?ae_smart_ptr_destroy@alglib_impl@@YAXPEAX@Z
	 ?ae_smart_ptr_init@alglib_impl@@YAXPEAUae_smart_ptr@1@PEAPEAXPEAUae_state@1@@Z
	 ?ae_smart_ptr_release@alglib_impl@@YAXPEAUae_smart_ptr@1@@Z
	 ?ae_spin_wait@alglib_impl@@YAX_J@Z
	 ?ae_sqr@alglib_impl@@YANNPEAUae_state@1@@Z
	 ?ae_sqrt@alglib_impl@@YANNPEAUae_state@1@@Z
	 ?ae_state_clear@alglib_impl@@YAXPEAUae_state@1@@Z
	 ?ae_state_init@alglib_impl@@YAXPEAUae_state@1@@Z
	 ?ae_str2bool@alglib_impl@@YA_NPEBDPEAUae_state@1@PEAPEBD@Z
	 ?ae_str2double@alglib_impl@@YANPEBDPEAUae_state@1@PEAPEBD@Z
	 ?ae_str2int@alglib_impl@@YA_JPEBDPEAUae_state@1@PEAPEBD@Z
	 ?ae_swap_matrices@alglib_impl@@YAXPEAUae_matrix@1@0@Z
	 ?ae_swap_vectors@alglib_impl@@YAXPEAUae_vector@1@0@Z
	 ?ae_tan@alglib_impl@@YANNPEAUae_state@1@@Z
	 ?ae_tanh@alglib_impl@@YANNPEAUae_state@1@@Z
	 ?ae_threebytes2foursixbits@alglib_impl@@YAXPEBEPEA_J@Z
	 ?ae_touch_ptr@alglib_impl@@YAXPEAX@Z
	 ?ae_trunc@alglib_impl@@YA_JNPEAUae_state@1@@Z
	 ?ae_v_add@alglib_impl@@YAXPEAN_JPEBN11@Z
	 ?ae_v_addd@alglib_impl@@YAXPEAN_JPEBN11N@Z
	 ?ae_v_cadd@alglib_impl@@YAXPEAUae_complex@1@_JPEBU21@1PEBD1@Z
	 ?ae_v_caddc@alglib_impl@@YAXPEAUae_complex@1@_JPEBU21@1PEBD1U21@@Z
	 ?ae_v_caddd@alglib_impl@@YAXPEAUae_complex@1@_JPEBU21@1PEBD1N@Z
	 ?ae_v_cdotproduct@alglib_impl@@YA?AUae_complex@1@PEBU21@_JPEBD0121@Z
	 ?ae_v_cmove@alglib_impl@@YAXPEAUae_complex@1@_JPEBU21@1PEBD1@Z
	 ?ae_v_cmovec@alglib_impl@@YAXPEAUae_complex@1@_JPEBU21@1PEBD1U21@@Z
	 ?ae_v_cmoved@alglib_impl@@YAXPEAUae_complex@1@_JPEBU21@1PEBD1N@Z
	 ?ae_v_cmoveneg@alglib_impl@@YAXPEAUae_complex@1@_JPEBU21@1PEBD1@Z
	 ?ae_v_cmulc@alglib_impl@@YAXPEAUae_complex@1@_J1U21@@Z
	 ?ae_v_cmuld@alglib_impl@@YAXPEAUae_complex@1@_J1N@Z
	 ?ae_v_csub@alglib_impl@@YAXPEAUae_complex@1@_JPEBU21@1PEBD1@Z
	 ?ae_v_csubc@alglib_impl@@YAXPEAUae_complex@1@_JPEBU21@1PEBD1U21@@Z
	 ?ae_v_csubd@alglib_impl@@YAXPEAUae_complex@1@_JPEBU21@1PEBD1N@Z
	 ?ae_v_dotproduct@alglib_impl@@YANPEBN_J011@Z
	 ?ae_v_len@alglib_impl@@YA_J_J0@Z
	 ?ae_v_move@alglib_impl@@YAXPEAN_JPEBN11@Z
	 ?ae_v_moved@alglib_impl@@YAXPEAN_JPEBN11N@Z
	 ?ae_v_moveneg@alglib_impl@@YAXPEAN_JPEBN11@Z
	 ?ae_v_muld@alglib_impl@@YAXPEAN_J1N@Z
	 ?ae_v_sub@alglib_impl@@YAXPEAN_JPEBN11@Z
	 ?ae_v_subd@alglib_impl@@YAXPEAN_JPEBN11N@Z
	 ?ae_vector_attach_to_x@alglib_impl@@YAXPEAUae_vector@1@PEAUx_vector@1@PEAUae_state@1@@Z
	 ?ae_vector_clear@alglib_impl@@YAXPEAUae_vector@1@@Z
	 ?ae_vector_destroy@alglib_impl@@YAXPEAUae_vector@1@@Z
	 ?ae_vector_init@alglib_impl@@YAXPEAUae_vector@1@_J1PEAUae_state@1@@Z
	 ?ae_vector_init_copy@alglib_impl@@YAXPEAUae_vector@1@0PEAUae_state@1@@Z
	 ?ae_vector_init_from_x@alglib_impl@@YAXPEAUae_vector@1@PEAUx_vector@1@PEAUae_state@1@@Z
	 ?ae_vector_set_length@alglib_impl@@YA_NPEAUae_vector@1@_JPEAUae_state@1@@Z
	 ?ae_x_attach_to_matrix@alglib_impl@@YAXPEAUx_matrix@1@PEAUae_matrix@1@@Z
	 ?ae_x_attach_to_vector@alglib_impl@@YAXPEAUx_vector@1@PEAUae_vector@1@@Z
	 ?ae_x_set_matrix@alglib_impl@@YAXPEAUx_matrix@1@PEAUae_matrix@1@PEAUae_state@1@@Z
	 ?ae_x_set_vector@alglib_impl@@YAXPEAUx_vector@1@PEAUae_vector@1@PEAUae_state@1@@Z
	 ?ae_yield@alglib_impl@@YAXXZ
	 ?aligned_free@alglib_impl@@YAXPEAX@Z
	 ?aligned_malloc@alglib_impl@@YAPEAX_K0@Z
	 ?allocate_own@ae_matrix_wrapper@alglib@@QEAAX_J00@Z
	 ?allocate_own@ae_vector_wrapper@alglib@@QEAAX_J0@Z
	 ?arraytostring@alglib@@YA?AV?$basic_string@DU?$char_traits@D@std@@V?$allocator@D@2@@std@@PEB_J_J@Z
	 ?arraytostring@alglib@@YA?AV?$basic_string@DU?$char_traits@D@std@@V?$allocator@D@2@@std@@PEB_N_J@Z
	 ?arraytostring@alglib@@YA?AV?$basic_string@DU?$char_traits@D@std@@V?$allocator@D@2@@std@@PEBN_JH@Z
	 ?arraytostring@alglib@@YA?AV?$basic_string@DU?$char_traits@D@std@@V?$allocator@D@2@@std@@PEBVcomplex@1@_JH@Z
	 ?assign@ae_matrix_wrapper@alglib@@IEAAXAEBV12@@Z
	 ?assign@ae_vector_wrapper@alglib@@IEAAXAEBV12@@Z
	 ?attach_to@ae_matrix_wrapper@alglib@@QEAAXPEAUae_matrix@alglib_impl@@@Z
	 ?attach_to@ae_vector_wrapper@alglib@@QEAAXPEAUae_vector@alglib_impl@@@Z
	 ?c_ptr@ae_matrix_wrapper@alglib@@QEAAPEAUae_matrix@alglib_impl@@XZ
	 ?c_ptr@ae_matrix_wrapper@alglib@@QEBAPEBUae_matrix@alglib_impl@@XZ
	 ?c_ptr@ae_vector_wrapper@alglib@@QEAAPEAUae_vector@alglib_impl@@XZ
	 ?c_ptr@ae_vector_wrapper@alglib@@QEBAPEBUae_vector@alglib_impl@@XZ
	 ?c_ptr@complex@alglib@@QEAAPEAUae_complex@alglib_impl@@XZ
	 ?c_ptr@complex@alglib@@QEBAPEBUae_complex@alglib_impl@@XZ
	 ?cols@ae_matrix_wrapper@alglib@@QEBA_JXZ
	 ?conj@alglib@@YA?AVcomplex@1@AEBV21@@Z
	 ?create@ae_matrix_wrapper@alglib@@IEAAXAEBV12@@Z
	 ?create@ae_matrix_wrapper@alglib@@IEAAXPEBD_J@Z
	 ?create@ae_vector_wrapper@alglib@@IEAAXAEBV12@@Z
	 ?create@ae_vector_wrapper@alglib@@IEAAXPEBD_J@Z
	 ?csqr@alglib@@YA?AVcomplex@1@AEBV21@@Z
	 ?endianness@alglib@@3_JB
	 ?filter_spaces@alglib@@YAPEADPEBD@Z
	 ?fp_eq@alglib@@YA_NNN@Z
	 ?fp_greater@alglib@@YA_NNN@Z
	 ?fp_greater_eq@alglib@@YA_NNN@Z
	 ?fp_isfinite@alglib@@YA_NN@Z
	 ?fp_isinf@alglib@@YA_NN@Z
	 ?fp_isnan@alglib@@YA_NN@Z
	 ?fp_isneginf@alglib@@YA_NN@Z
	 ?fp_isposinf@alglib@@YA_NN@Z
	 ?fp_less@alglib@@YA_NNN@Z
	 ?fp_less_eq@alglib@@YA_NNN@Z
	 ?fp_nan@alglib@@3NB
	 ?fp_neginf@alglib@@3NB
	 ?fp_neq@alglib@@YA_NNN@Z
	 ?fp_posinf@alglib@@3NB
	 ?get_aenv_nan@alglib@@YANXZ
	 ?get_aenv_neginf@alglib@@YANXZ
	 ?get_aenv_posinf@alglib@@YANXZ
	 ?getcontent@boolean_1d_array@alglib@@QEAAPEA_NXZ
	 ?getcontent@boolean_1d_array@alglib@@QEBAPEB_NXZ
	 ?getcontent@complex_1d_array@alglib@@QEAAPEAVcomplex@2@XZ
	 ?getcontent@complex_1d_array@alglib@@QEBAPEBVcomplex@2@XZ
	 ?getcontent@integer_1d_array@alglib@@QEAAPEA_JXZ
	 ?getcontent@integer_1d_array@alglib@@QEBAPEB_JXZ
	 ?getcontent@real_1d_array@alglib@@QEAAPEANXZ
	 ?getcontent@real_1d_array@alglib@@QEBAPEBNXZ
	 ?getstride@ae_matrix_wrapper@alglib@@QEBA_JXZ
	 ?iceil@alglib@@YAHN@Z
	 ?ifloor@alglib@@YAHN@Z
	 ?isempty@ae_matrix_wrapper@alglib@@QEBA_NXZ
	 ?length@ae_vector_wrapper@alglib@@QEBA_JXZ
	 ?machineepsilon@alglib@@3NB
	 ?make_assertion@ap_error@alglib@@SAX_N@Z
	 ?make_assertion@ap_error@alglib@@SAX_NPEBD@Z
	 ?maxint@alglib@@YAHHH@Z
	 ?maxreal@alglib@@YANNN@Z
	 ?maxrealnumber@alglib@@3NB
	 ?minint@alglib@@YAHHH@Z
	 ?minreal@alglib@@YANNN@Z
	 ?minrealnumber@alglib@@3NB
	 ?my_stricmp@alglib@@YA_JPEBD0@Z
	 ?parse_bool_delim@alglib@@YA_NPEBD0@Z
	 ?parse_complex_delim@alglib@@YA?AVcomplex@1@PEBD0@Z
	 ?parse_int_delim@alglib@@YA_JPEBD0@Z
	 ?parse_real_delim@alglib@@YANPEBD0@Z
	 ?pi@alglib@@YANXZ
	 ?randominteger@alglib@@YA_J_J@Z
	 ?randomreal@alglib@@YANXZ
	 ?read_csv@alglib@@YAXPEBDDHAEAVreal_2d_array@1@@Z
	 ?round@alglib@@YAHN@Z
	 ?rows@ae_matrix_wrapper@alglib@@QEBA_JXZ
	 ?setcontent@boolean_1d_array@alglib@@QEAAX_JPEB_N@Z
	 ?setcontent@boolean_2d_array@alglib@@QEAAX_J0PEB_N@Z
	 ?setcontent@complex_1d_array@alglib@@QEAAX_JPEBVcomplex@2@@Z
	 ?setcontent@complex_2d_array@alglib@@QEAAX_J0PEBVcomplex@2@@Z
	 ?setcontent@integer_1d_array@alglib@@QEAAX_JPEB_J@Z
	 ?setcontent@integer_2d_array@alglib@@QEAAX_J0PEB_J@Z
	 ?setcontent@real_1d_array@alglib@@QEAAX_JPEBN@Z
	 ?setcontent@real_2d_array@alglib@@QEAAX_J0PEBN@Z
	 ?setlength@ae_matrix_wrapper@alglib@@QEAAX_J0@Z
	 ?setlength@ae_vector_wrapper@alglib@@QEAAX_J@Z
	 ?setnworkers@alglib@@YAX_J@Z
	 ?sign@alglib@@YAHN@Z
	 ?sqr@alglib@@YANN@Z
	 ?str_matrix_create@alglib@@YAXPEBDPEAV?$vector@V?$vector@PEBDV?$allocator@PEBD@std@@@std@@V?$allocator@V?$vector@PEBDV?$allocator@PEBD@std@@@std@@@2@@std@@@Z
	 ?str_vector_create@alglib@@YAXPEBD_NPEAV?$vector@PEBDV?$allocator@PEBD@std@@@std@@@Z
	 ?tostring@boolean_1d_array@alglib@@QEBA?AV?$basic_string@DU?$char_traits@D@std@@V?$allocator@D@2@@std@@XZ
	 ?tostring@boolean_2d_array@alglib@@QEBA?AV?$basic_string@DU?$char_traits@D@std@@V?$allocator@D@2@@std@@XZ
	 ?tostring@complex@alglib@@QEBA?AV?$basic_string@DU?$char_traits@D@std@@V?$allocator@D@2@@std@@H@Z
	 ?tostring@complex_1d_array@alglib@@QEBA?AV?$basic_string@DU?$char_traits@D@std@@V?$allocator@D@2@@std@@H@Z
	 ?tostring@complex_2d_array@alglib@@QEBA?AV?$basic_string@DU?$char_traits@D@std@@V?$allocator@D@2@@std@@H@Z
	 ?tostring@integer_1d_array@alglib@@QEBA?AV?$basic_string@DU?$char_traits@D@std@@V?$allocator@D@2@@std@@XZ
	 ?tostring@integer_2d_array@alglib@@QEBA?AV?$basic_string@DU?$char_traits@D@std@@V?$allocator@D@2@@std@@XZ
	 ?tostring@real_1d_array@alglib@@QEBA?AV?$basic_string@DU?$char_traits@D@std@@V?$allocator@D@2@@std@@H@Z
	 ?tostring@real_2d_array@alglib@@QEBA?AV?$basic_string@DU?$char_traits@D@std@@V?$allocator@D@2@@std@@H@Z
	 ?trunc@alglib@@YAHN@Z
	 ?vadd@alglib@@YAXPEAN_JPEBN11@Z
	 ?vadd@alglib@@YAXPEAN_JPEBN11N@Z
	 ?vadd@alglib@@YAXPEANPEBN_J@Z
	 ?vadd@alglib@@YAXPEANPEBN_JN@Z
	 ?vadd@alglib@@YAXPEAVcomplex@1@_JPEBV21@1PEBD1@Z
	 ?vadd@alglib@@YAXPEAVcomplex@1@_JPEBV21@1PEBD1N@Z
	 ?vadd@alglib@@YAXPEAVcomplex@1@_JPEBV21@1PEBD1V21@@Z
	 ?vadd@alglib@@YAXPEAVcomplex@1@PEBV21@_J@Z
	 ?vadd@alglib@@YAXPEAVcomplex@1@PEBV21@_JN@Z
	 ?vadd@alglib@@YAXPEAVcomplex@1@PEBV21@_JV21@@Z
	 ?vdotproduct@alglib@@YA?AVcomplex@1@PEBV21@_JPEBD0121@Z
	 ?vdotproduct@alglib@@YA?AVcomplex@1@PEBV21@0_J@Z
	 ?vdotproduct@alglib@@YANPEBN_J011@Z
	 ?vdotproduct@alglib@@YANPEBN0_J@Z
	 ?vlen@alglib@@YA_J_J0@Z
	 ?vmove@alglib@@YAXPEAN_JPEBN11@Z
	 ?vmove@alglib@@YAXPEAN_JPEBN11N@Z
	 ?vmove@alglib@@YAXPEANPEBN_J@Z
	 ?vmove@alglib@@YAXPEANPEBN_JN@Z
	 ?vmove@alglib@@YAXPEAVcomplex@1@_JPEBV21@1PEBD1@Z
	 ?vmove@alglib@@YAXPEAVcomplex@1@_JPEBV21@1PEBD1N@Z
	 ?vmove@alglib@@YAXPEAVcomplex@1@_JPEBV21@1PEBD1V21@@Z
	 ?vmove@alglib@@YAXPEAVcomplex@1@PEBV21@_J@Z
	 ?vmove@alglib@@YAXPEAVcomplex@1@PEBV21@_JN@Z
	 ?vmove@alglib@@YAXPEAVcomplex@1@PEBV21@_JV21@@Z
	 ?vmoveneg@alglib@@YAXPEAN_JPEBN11@Z
	 ?vmoveneg@alglib@@YAXPEANPEBN_J@Z
	 ?vmoveneg@alglib@@YAXPEAVcomplex@1@_JPEBV21@1PEBD1@Z
	 ?vmoveneg@alglib@@YAXPEAVcomplex@1@PEBV21@_J@Z
	 ?vmul@alglib@@YAXPEAN_J1N@Z
	 ?vmul@alglib@@YAXPEAN_JN@Z
	 ?vmul@alglib@@YAXPEAVcomplex@1@_J1N@Z
	 ?vmul@alglib@@YAXPEAVcomplex@1@_J1V21@@Z
	 ?vmul@alglib@@YAXPEAVcomplex@1@_JN@Z
	 ?vmul@alglib@@YAXPEAVcomplex@1@_JV21@@Z
	 ?vsub@alglib@@YAXPEAN_JPEBN11@Z
	 ?vsub@alglib@@YAXPEAN_JPEBN11N@Z
	 ?vsub@alglib@@YAXPEANPEBN_J@Z
	 ?vsub@alglib@@YAXPEANPEBN_JN@Z
	 ?vsub@alglib@@YAXPEAVcomplex@1@_JPEBV21@1PEBD1@Z
	 ?vsub@alglib@@YAXPEAVcomplex@1@_JPEBV21@1PEBD1N@Z
	 ?vsub@alglib@@YAXPEAVcomplex@1@_JPEBV21@1PEBD1V21@@Z
	 ?vsub@alglib@@YAXPEAVcomplex@1@PEBV21@_J@Z
	 ?vsub@alglib@@YAXPEAVcomplex@1@PEBV21@_JN@Z
	 ?vsub@alglib@@YAXPEAVcomplex@1@PEBV21@_JV21@@Z
	 ?x_force_hermitian@alglib_impl@@YA_NPEAUx_matrix@1@@Z
	 ?x_force_symmetric@alglib_impl@@YA_NPEAUx_matrix@1@@Z
	 ?x_is_hermitian@alglib_impl@@YA_NPEAUx_matrix@1@@Z
	 ?x_is_symmetric@alglib_impl@@YA_NPEAUx_matrix@1@@Z
	 ?x_vector_clear@alglib_impl@@YAXPEAUx_vector@1@@Z
	 ??_7_ahcreport_owner@alglib@@6B@
	 ??_7_clusterizerstate_owner@alglib@@6B@
	 ??_7_decisionforest_owner@alglib@@6B@
	 ??_7_dfreport_owner@alglib@@6B@
	 ??_7_kmeansreport_owner@alglib@@6B@
	 ??_7_linearmodel_owner@alglib@@6B@
	 ??_7_logitmodel_owner@alglib@@6B@
	 ??_7_lrreport_owner@alglib@@6B@
	 ??_7_mcpdreport_owner@alglib@@6B@
	 ??_7_mcpdstate_owner@alglib@@6B@
	 ??_7_mlpcvreport_owner@alglib@@6B@
	 ??_7_mlpensemble_owner@alglib@@6B@
	 ??_7_mlpreport_owner@alglib@@6B@
	 ??_7_mlptrainer_owner@alglib@@6B@
	 ??_7_mnlreport_owner@alglib@@6B@
	 ??_7_modelerrors_owner@alglib@@6B@
	 ??_7_multilayerperceptron_owner@alglib@@6B@
	 ??_7ahcreport@alglib@@6B@
	 ??_7clusterizerstate@alglib@@6B@
	 ??_7decisionforest@alglib@@6B@
	 ??_7dfreport@alglib@@6B@
	 ??_7kmeansreport@alglib@@6B@
	 ??_7linearmodel@alglib@@6B@
	 ??_7logitmodel@alglib@@6B@
	 ??_7lrreport@alglib@@6B@
	 ??_7mcpdreport@alglib@@6B@
	 ??_7mcpdstate@alglib@@6B@
	 ??_7mlpcvreport@alglib@@6B@
	 ??_7mlpensemble@alglib@@6B@
	 ??_7mlpreport@alglib@@6B@
	 ??_7mlptrainer@alglib@@6B@
	 ??_7mnlreport@alglib@@6B@
	 ??_7modelerrors@alglib@@6B@
	 ??_7multilayerperceptron@alglib@@6B@
	 ??_R0?AV_ahcreport_owner@alglib@@@8
	 ??_R0?AV_clusterizerstate_owner@alglib@@@8
	 ??_R0?AV_decisionforest_owner@alglib@@@8
	 ??_R0?AV_dfreport_owner@alglib@@@8
	 ??_R0?AV_kmeansreport_owner@alglib@@@8
	 ??_R0?AV_linearmodel_owner@alglib@@@8
	 ??_R0?AV_logitmodel_owner@alglib@@@8
	 ??_R0?AV_lrreport_owner@alglib@@@8
	 ??_R0?AV_mcpdreport_owner@alglib@@@8
	 ??_R0?AV_mcpdstate_owner@alglib@@@8
	 ??_R0?AV_mlpcvreport_owner@alglib@@@8
	 ??_R0?AV_mlpensemble_owner@alglib@@@8
	 ??_R0?AV_mlpreport_owner@alglib@@@8
	 ??_R0?AV_mlptrainer_owner@alglib@@@8
	 ??_R0?AV_mnlreport_owner@alglib@@@8
	 ??_R0?AV_modelerrors_owner@alglib@@@8
	 ??_R0?AV_multilayerperceptron_owner@alglib@@@8
	 ??_R0?AVahcreport@alglib@@@8
	 ??_R0?AVclusterizerstate@alglib@@@8
	 ??_R0?AVdecisionforest@alglib@@@8
	 ??_R0?AVdfreport@alglib@@@8
	 ??_R0?AVkmeansreport@alglib@@@8
	 ??_R0?AVlinearmodel@alglib@@@8
	 ??_R0?AVlogitmodel@alglib@@@8
	 ??_R0?AVlrreport@alglib@@@8
	 ??_R0?AVmcpdreport@alglib@@@8
	 ??_R0?AVmcpdstate@alglib@@@8
	 ??_R0?AVmlpcvreport@alglib@@@8
	 ??_R0?AVmlpensemble@alglib@@@8
	 ??_R0?AVmlpreport@alglib@@@8
	 ??_R0?AVmlptrainer@alglib@@@8
	 ??_R0?AVmnlreport@alglib@@@8
	 ??_R0?AVmodelerrors@alglib@@@8
	 ??_R0?AVmultilayerperceptron@alglib@@@8
	 ??_R1A@?0A@EA@_ahcreport_owner@alglib@@8
	 ??_R1A@?0A@EA@_clusterizerstate_owner@alglib@@8
	 ??_R1A@?0A@EA@_decisionforest_owner@alglib@@8
	 ??_R1A@?0A@EA@_dfreport_owner@alglib@@8
	 ??_R1A@?0A@EA@_kmeansreport_owner@alglib@@8
	 ??_R1A@?0A@EA@_linearmodel_owner@alglib@@8
	 ??_R1A@?0A@EA@_logitmodel_owner@alglib@@8
	 ??_R1A@?0A@EA@_lrreport_owner@alglib@@8
	 ??_R1A@?0A@EA@_mcpdreport_owner@alglib@@8
	 ??_R1A@?0A@EA@_mcpdstate_owner@alglib@@8
	 ??_R1A@?0A@EA@_mlpcvreport_owner@alglib@@8
	 ??_R1A@?0A@EA@_mlpensemble_owner@alglib@@8
	 ??_R1A@?0A@EA@_mlpreport_owner@alglib@@8
	 ??_R1A@?0A@EA@_mlptrainer_owner@alglib@@8
	 ??_R1A@?0A@EA@_mnlreport_owner@alglib@@8
	 ??_R1A@?0A@EA@_modelerrors_owner@alglib@@8
	 ??_R1A@?0A@EA@_multilayerperceptron_owner@alglib@@8
	 ??_R1A@?0A@EA@ahcreport@alglib@@8
	 ??_R1A@?0A@EA@clusterizerstate@alglib@@8
	 ??_R1A@?0A@EA@decisionforest@alglib@@8
	 ??_R1A@?0A@EA@dfreport@alglib@@8
	 ??_R1A@?0A@EA@kmeansreport@alglib@@8
	 ??_R1A@?0A@EA@linearmodel@alglib@@8
	 ??_R1A@?0A@EA@logitmodel@alglib@@8
	 ??_R1A@?0A@EA@lrreport@alglib@@8
	 ??_R1A@?0A@EA@mcpdreport@alglib@@8
	 ??_R1A@?0A@EA@mcpdstate@alglib@@8
	 ??_R1A@?0A@EA@mlpcvreport@alglib@@8
	 ??_R1A@?0A@EA@mlpensemble@alglib@@8
	 ??_R1A@?0A@EA@mlpreport@alglib@@8
	 ??_R1A@?0A@EA@mlptrainer@alglib@@8
	 ??_R1A@?0A@EA@mnlreport@alglib@@8
	 ??_R1A@?0A@EA@modelerrors@alglib@@8
	 ??_R1A@?0A@EA@multilayerperceptron@alglib@@8
	 ??_R2_ahcreport_owner@alglib@@8
	 ??_R2_clusterizerstate_owner@alglib@@8
	 ??_R2_decisionforest_owner@alglib@@8
	 ??_R2_dfreport_owner@alglib@@8
	 ??_R2_kmeansreport_owner@alglib@@8
	 ??_R2_linearmodel_owner@alglib@@8
	 ??_R2_logitmodel_owner@alglib@@8
	 ??_R2_lrreport_owner@alglib@@8
	 ??_R2_mcpdreport_owner@alglib@@8
	 ??_R2_mcpdstate_owner@alglib@@8
	 ??_R2_mlpcvreport_owner@alglib@@8
	 ??_R2_mlpensemble_owner@alglib@@8
	 ??_R2_mlpreport_owner@alglib@@8
	 ??_R2_mlptrainer_owner@alglib@@8
	 ??_R2_mnlreport_owner@alglib@@8
	 ??_R2_modelerrors_owner@alglib@@8
	 ??_R2_multilayerperceptron_owner@alglib@@8
	 ??_R2ahcreport@alglib@@8
	 ??_R2clusterizerstate@alglib@@8
	 ??_R2decisionforest@alglib@@8
	 ??_R2dfreport@alglib@@8
	 ??_R2kmeansreport@alglib@@8
	 ??_R2linearmodel@alglib@@8
	 ??_R2logitmodel@alglib@@8
	 ??_R2lrreport@alglib@@8
	 ??_R2mcpdreport@alglib@@8
	 ??_R2mcpdstate@alglib@@8
	 ??_R2mlpcvreport@alglib@@8
	 ??_R2mlpensemble@alglib@@8
	 ??_R2mlpreport@alglib@@8
	 ??_R2mlptrainer@alglib@@8
	 ??_R2mnlreport@alglib@@8
	 ??_R2modelerrors@alglib@@8
	 ??_R2multilayerperceptron@alglib@@8
	 ??_R3_ahcreport_owner@alglib@@8
	 ??_R3_clusterizerstate_owner@alglib@@8
	 ??_R3_decisionforest_owner@alglib@@8
	 ??_R3_dfreport_owner@alglib@@8
	 ??_R3_kmeansreport_owner@alglib@@8
	 ??_R3_linearmodel_owner@alglib@@8
	 ??_R3_logitmodel_owner@alglib@@8
	 ??_R3_lrreport_owner@alglib@@8
	 ??_R3_mcpdreport_owner@alglib@@8
	 ??_R3_mcpdstate_owner@alglib@@8
	 ??_R3_mlpcvreport_owner@alglib@@8
	 ??_R3_mlpensemble_owner@alglib@@8
	 ??_R3_mlpreport_owner@alglib@@8
	 ??_R3_mlptrainer_owner@alglib@@8
	 ??_R3_mnlreport_owner@alglib@@8
	 ??_R3_modelerrors_owner@alglib@@8
	 ??_R3_multilayerperceptron_owner@alglib@@8
	 ??_R3ahcreport@alglib@@8
	 ??_R3clusterizerstate@alglib@@8
	 ??_R3decisionforest@alglib@@8
	 ??_R3dfreport@alglib@@8
	 ??_R3kmeansreport@alglib@@8
	 ??_R3linearmodel@alglib@@8
	 ??_R3logitmodel@alglib@@8
	 ??_R3lrreport@alglib@@8
	 ??_R3mcpdreport@alglib@@8
	 ??_R3mcpdstate@alglib@@8
	 ??_R3mlpcvreport@alglib@@8
	 ??_R3mlpensemble@alglib@@8
	 ??_R3mlpreport@alglib@@8
	 ??_R3mlptrainer@alglib@@8
	 ??_R3mnlreport@alglib@@8
	 ??_R3modelerrors@alglib@@8
	 ??_R3multilayerperceptron@alglib@@8
	 ??_R4_ahcreport_owner@alglib@@6B@
	 ??_R4_clusterizerstate_owner@alglib@@6B@
	 ??_R4_decisionforest_owner@alglib@@6B@
	 ??_R4_dfreport_owner@alglib@@6B@
	 ??_R4_kmeansreport_owner@alglib@@6B@
	 ??_R4_linearmodel_owner@alglib@@6B@
	 ??_R4_logitmodel_owner@alglib@@6B@
	 ??_R4_lrreport_owner@alglib@@6B@
	 ??_R4_mcpdreport_owner@alglib@@6B@
	 ??_R4_mcpdstate_owner@alglib@@6B@
	 ??_R4_mlpcvreport_owner@alglib@@6B@
	 ??_R4_mlpensemble_owner@alglib@@6B@
	 ??_R4_mlpreport_owner@alglib@@6B@
	 ??_R4_mlptrainer_owner@alglib@@6B@
	 ??_R4_mnlreport_owner@alglib@@6B@
	 ??_R4_modelerrors_owner@alglib@@6B@
	 ??_R4_multilayerperceptron_owner@alglib@@6B@
	 ??_R4ahcreport@alglib@@6B@
	 ??_R4clusterizerstate@alglib@@6B@
	 ??_R4decisionforest@alglib@@6B@
	 ??_R4dfreport@alglib@@6B@
	 ??_R4kmeansreport@alglib@@6B@
	 ??_R4linearmodel@alglib@@6B@
	 ??_R4logitmodel@alglib@@6B@
	 ??_R4lrreport@alglib@@6B@
	 ??_R4mcpdreport@alglib@@6B@
	 ??_R4mcpdstate@alglib@@6B@
	 ??_R4mlpcvreport@alglib@@6B@
	 ??_R4mlpensemble@alglib@@6B@
	 ??_R4mlpreport@alglib@@6B@
	 ??_R4mlptrainer@alglib@@6B@
	 ??_R4mnlreport@alglib@@6B@
	 ??_R4modelerrors@alglib@@6B@
	 ??_R4multilayerperceptron@alglib@@6B@
	 ??0_ahcreport_owner@alglib@@QEAA@AEBV01@@Z
	 ??0_ahcreport_owner@alglib@@QEAA@XZ
	 ??0_clusterizerstate_owner@alglib@@QEAA@AEBV01@@Z
	 ??0_clusterizerstate_owner@alglib@@QEAA@XZ
	 ??0_decisionforest_owner@alglib@@QEAA@AEBV01@@Z
	 ??0_decisionforest_owner@alglib@@QEAA@XZ
	 ??0_dfreport_owner@alglib@@QEAA@AEBV01@@Z
	 ??0_dfreport_owner@alglib@@QEAA@XZ
	 ??0_kmeansreport_owner@alglib@@QEAA@AEBV01@@Z
	 ??0_kmeansreport_owner@alglib@@QEAA@XZ
	 ??0_linearmodel_owner@alglib@@QEAA@AEBV01@@Z
	 ??0_linearmodel_owner@alglib@@QEAA@XZ
	 ??0_logitmodel_owner@alglib@@QEAA@AEBV01@@Z
	 ??0_logitmodel_owner@alglib@@QEAA@XZ
	 ??0_lrreport_owner@alglib@@QEAA@AEBV01@@Z
	 ??0_lrreport_owner@alglib@@QEAA@XZ
	 ??0_mcpdreport_owner@alglib@@QEAA@AEBV01@@Z
	 ??0_mcpdreport_owner@alglib@@QEAA@XZ
	 ??0_mcpdstate_owner@alglib@@QEAA@AEBV01@@Z
	 ??0_mcpdstate_owner@alglib@@QEAA@XZ
	 ??0_mlpcvreport_owner@alglib@@QEAA@AEBV01@@Z
	 ??0_mlpcvreport_owner@alglib@@QEAA@XZ
	 ??0_mlpensemble_owner@alglib@@QEAA@AEBV01@@Z
	 ??0_mlpensemble_owner@alglib@@QEAA@XZ
	 ??0_mlpreport_owner@alglib@@QEAA@AEBV01@@Z
	 ??0_mlpreport_owner@alglib@@QEAA@XZ
	 ??0_mlptrainer_owner@alglib@@QEAA@AEBV01@@Z
	 ??0_mlptrainer_owner@alglib@@QEAA@XZ
	 ??0_mnlreport_owner@alglib@@QEAA@AEBV01@@Z
	 ??0_mnlreport_owner@alglib@@QEAA@XZ
	 ??0_modelerrors_owner@alglib@@QEAA@AEBV01@@Z
	 ??0_modelerrors_owner@alglib@@QEAA@XZ
	 ??0_multilayerperceptron_owner@alglib@@QEAA@AEBV01@@Z
	 ??0_multilayerperceptron_owner@alglib@@QEAA@XZ
	 ??0ahcreport@alglib@@QEAA@AEBV01@@Z
	 ??0ahcreport@alglib@@QEAA@XZ
	 ??0ap_error@alglib@@QEAA@AEBV01@@Z
	 ??0clusterizerstate@alglib@@QEAA@AEBV01@@Z
	 ??0clusterizerstate@alglib@@QEAA@XZ
	 ??0decisionforest@alglib@@QEAA@AEBV01@@Z
	 ??0decisionforest@alglib@@QEAA@XZ
	 ??0dfreport@alglib@@QEAA@AEBV01@@Z
	 ??0dfreport@alglib@@QEAA@XZ
	 ??0kmeansreport@alglib@@QEAA@AEBV01@@Z
	 ??0kmeansreport@alglib@@QEAA@XZ
	 ??0linearmodel@alglib@@QEAA@AEBV01@@Z
	 ??0linearmodel@alglib@@QEAA@XZ
	 ??0logitmodel@alglib@@QEAA@AEBV01@@Z
	 ??0logitmodel@alglib@@QEAA@XZ
	 ??0lrreport@alglib@@QEAA@AEBV01@@Z
	 ??0lrreport@alglib@@QEAA@XZ
	 ??0mcpdreport@alglib@@QEAA@AEBV01@@Z
	 ??0mcpdreport@alglib@@QEAA@XZ
	 ??0mcpdstate@alglib@@QEAA@AEBV01@@Z
	 ??0mcpdstate@alglib@@QEAA@XZ
	 ??0mlpcvreport@alglib@@QEAA@AEBV01@@Z
	 ??0mlpcvreport@alglib@@QEAA@XZ
	 ??0mlpensemble@alglib@@QEAA@AEBV01@@Z
	 ??0mlpensemble@alglib@@QEAA@XZ
	 ??0mlpreport@alglib@@QEAA@AEBV01@@Z
	 ??0mlpreport@alglib@@QEAA@XZ
	 ??0mlptrainer@alglib@@QEAA@AEBV01@@Z
	 ??0mlptrainer@alglib@@QEAA@XZ
	 ??0mnlreport@alglib@@QEAA@AEBV01@@Z
	 ??0mnlreport@alglib@@QEAA@XZ
	 ??0modelerrors@alglib@@QEAA@AEBV01@@Z
	 ??0modelerrors@alglib@@QEAA@XZ
	 ??0multilayerperceptron@alglib@@QEAA@AEBV01@@Z
	 ??0multilayerperceptron@alglib@@QEAA@XZ
	 ??1_ahcreport_owner@alglib@@UEAA@XZ
	 ??1_clusterizerstate_owner@alglib@@UEAA@XZ
	 ??1_decisionforest_owner@alglib@@UEAA@XZ
	 ??1_dfreport_owner@alglib@@UEAA@XZ
	 ??1_kmeansreport_owner@alglib@@UEAA@XZ
	 ??1_linearmodel_owner@alglib@@UEAA@XZ
	 ??1_logitmodel_owner@alglib@@UEAA@XZ
	 ??1_lrreport_owner@alglib@@UEAA@XZ
	 ??1_mcpdreport_owner@alglib@@UEAA@XZ
	 ??1_mcpdstate_owner@alglib@@UEAA@XZ
	 ??1_mlpcvreport_owner@alglib@@UEAA@XZ
	 ??1_mlpensemble_owner@alglib@@UEAA@XZ
	 ??1_mlpreport_owner@alglib@@UEAA@XZ
	 ??1_mlptrainer_owner@alglib@@UEAA@XZ
	 ??1_mnlreport_owner@alglib@@UEAA@XZ
	 ??1_modelerrors_owner@alglib@@UEAA@XZ
	 ??1_multilayerperceptron_owner@alglib@@UEAA@XZ
	 ??1ahcreport@alglib@@UEAA@XZ
	 ??1ap_error@alglib@@QEAA@XZ
	 ??1clusterizerstate@alglib@@UEAA@XZ
	 ??1decisionforest@alglib@@UEAA@XZ
	 ??1dfreport@alglib@@UEAA@XZ
	 ??1kmeansreport@alglib@@UEAA@XZ
	 ??1linearmodel@alglib@@UEAA@XZ
	 ??1logitmodel@alglib@@UEAA@XZ
	 ??1lrreport@alglib@@UEAA@XZ
	 ??1mcpdreport@alglib@@UEAA@XZ
	 ??1mcpdstate@alglib@@UEAA@XZ
	 ??1mlpcvreport@alglib@@UEAA@XZ
	 ??1mlpensemble@alglib@@UEAA@XZ
	 ??1mlpreport@alglib@@UEAA@XZ
	 ??1mlptrainer@alglib@@UEAA@XZ
	 ??1mnlreport@alglib@@UEAA@XZ
	 ??1modelerrors@alglib@@UEAA@XZ
	 ??1multilayerperceptron@alglib@@UEAA@XZ
	 ??4_ahcreport_owner@alglib@@QEAAAEAV01@AEBV01@@Z
	 ??4_clusterizerstate_owner@alglib@@QEAAAEAV01@AEBV01@@Z
	 ??4_decisionforest_owner@alglib@@QEAAAEAV01@AEBV01@@Z
	 ??4_dfreport_owner@alglib@@QEAAAEAV01@AEBV01@@Z
	 ??4_kmeansreport_owner@alglib@@QEAAAEAV01@AEBV01@@Z
	 ??4_linearmodel_owner@alglib@@QEAAAEAV01@AEBV01@@Z
	 ??4_logitmodel_owner@alglib@@QEAAAEAV01@AEBV01@@Z
	 ??4_lrreport_owner@alglib@@QEAAAEAV01@AEBV01@@Z
	 ??4_mcpdreport_owner@alglib@@QEAAAEAV01@AEBV01@@Z
	 ??4_mcpdstate_owner@alglib@@QEAAAEAV01@AEBV01@@Z
	 ??4_mlpcvreport_owner@alglib@@QEAAAEAV01@AEBV01@@Z
	 ??4_mlpensemble_owner@alglib@@QEAAAEAV01@AEBV01@@Z
	 ??4_mlpreport_owner@alglib@@QEAAAEAV01@AEBV01@@Z
	 ??4_mlptrainer_owner@alglib@@QEAAAEAV01@AEBV01@@Z
	 ??4_mnlreport_owner@alglib@@QEAAAEAV01@AEBV01@@Z
	 ??4_modelerrors_owner@alglib@@QEAAAEAV01@AEBV01@@Z
	 ??4_multilayerperceptron_owner@alglib@@QEAAAEAV01@AEBV01@@Z
	 ??4ahcreport@alglib@@QEAAAEAV01@AEBV01@@Z
	 ??4clusterizerstate@alglib@@QEAAAEAV01@AEBV01@@Z
	 ??4decisionforest@alglib@@QEAAAEAV01@AEBV01@@Z
	 ??4dfreport@alglib@@QEAAAEAV01@AEBV01@@Z
	 ??4kmeansreport@alglib@@QEAAAEAV01@AEBV01@@Z
	 ??4linearmodel@alglib@@QEAAAEAV01@AEBV01@@Z
	 ??4logitmodel@alglib@@QEAAAEAV01@AEBV01@@Z
	 ??4lrreport@alglib@@QEAAAEAV01@AEBV01@@Z
	 ??4mcpdreport@alglib@@QEAAAEAV01@AEBV01@@Z
	 ??4mcpdstate@alglib@@QEAAAEAV01@AEBV01@@Z
	 ??4mlpcvreport@alglib@@QEAAAEAV01@AEBV01@@Z
	 ??4mlpensemble@alglib@@QEAAAEAV01@AEBV01@@Z
	 ??4mlpreport@alglib@@QEAAAEAV01@AEBV01@@Z
	 ??4mlptrainer@alglib@@QEAAAEAV01@AEBV01@@Z
	 ??4mnlreport@alglib@@QEAAAEAV01@AEBV01@@Z
	 ??4modelerrors@alglib@@QEAAAEAV01@AEBV01@@Z
	 ??4multilayerperceptron@alglib@@QEAAAEAV01@AEBV01@@Z
	 ?_ahcreport_clear@alglib_impl@@YAXPEAX@Z
	 ?_ahcreport_destroy@alglib_impl@@YAXPEAX@Z
	 ?_ahcreport_init@alglib_impl@@YAXPEAXPEAUae_state@1@@Z
	 ?_ahcreport_init_copy@alglib_impl@@YAXPEAX0PEAUae_state@1@@Z
	 ?_clusterizerstate_clear@alglib_impl@@YAXPEAX@Z
	 ?_clusterizerstate_destroy@alglib_impl@@YAXPEAX@Z
	 ?_clusterizerstate_init@alglib_impl@@YAXPEAXPEAUae_state@1@@Z
	 ?_clusterizerstate_init_copy@alglib_impl@@YAXPEAX0PEAUae_state@1@@Z
	 ?_cvreport_clear@alglib_impl@@YAXPEAX@Z
	 ?_cvreport_destroy@alglib_impl@@YAXPEAX@Z
	 ?_cvreport_init@alglib_impl@@YAXPEAXPEAUae_state@1@@Z
	 ?_cvreport_init_copy@alglib_impl@@YAXPEAX0PEAUae_state@1@@Z
	 ?_decisionforest_clear@alglib_impl@@YAXPEAX@Z
	 ?_decisionforest_destroy@alglib_impl@@YAXPEAX@Z
	 ?_decisionforest_init@alglib_impl@@YAXPEAXPEAUae_state@1@@Z
	 ?_decisionforest_init_copy@alglib_impl@@YAXPEAX0PEAUae_state@1@@Z
	 ?_dfinternalbuffers_clear@alglib_impl@@YAXPEAX@Z
	 ?_dfinternalbuffers_destroy@alglib_impl@@YAXPEAX@Z
	 ?_dfinternalbuffers_init@alglib_impl@@YAXPEAXPEAUae_state@1@@Z
	 ?_dfinternalbuffers_init_copy@alglib_impl@@YAXPEAX0PEAUae_state@1@@Z
	 ?_dfreport_clear@alglib_impl@@YAXPEAX@Z
	 ?_dfreport_destroy@alglib_impl@@YAXPEAX@Z
	 ?_dfreport_init@alglib_impl@@YAXPEAXPEAUae_state@1@@Z
	 ?_dfreport_init_copy@alglib_impl@@YAXPEAX0PEAUae_state@1@@Z
	 ?_kmeansbuffers_clear@alglib_impl@@YAXPEAX@Z
	 ?_kmeansbuffers_destroy@alglib_impl@@YAXPEAX@Z
	 ?_kmeansbuffers_init@alglib_impl@@YAXPEAXPEAUae_state@1@@Z
	 ?_kmeansbuffers_init_copy@alglib_impl@@YAXPEAX0PEAUae_state@1@@Z
	 ?_kmeansreport_clear@alglib_impl@@YAXPEAX@Z
	 ?_kmeansreport_destroy@alglib_impl@@YAXPEAX@Z
	 ?_kmeansreport_init@alglib_impl@@YAXPEAXPEAUae_state@1@@Z
	 ?_kmeansreport_init_copy@alglib_impl@@YAXPEAX0PEAUae_state@1@@Z
	 ?_linearmodel_clear@alglib_impl@@YAXPEAX@Z
	 ?_linearmodel_destroy@alglib_impl@@YAXPEAX@Z
	 ?_linearmodel_init@alglib_impl@@YAXPEAXPEAUae_state@1@@Z
	 ?_linearmodel_init_copy@alglib_impl@@YAXPEAX0PEAUae_state@1@@Z
	 ?_logitmcstate_clear@alglib_impl@@YAXPEAX@Z
	 ?_logitmcstate_destroy@alglib_impl@@YAXPEAX@Z
	 ?_logitmcstate_init@alglib_impl@@YAXPEAXPEAUae_state@1@@Z
	 ?_logitmcstate_init_copy@alglib_impl@@YAXPEAX0PEAUae_state@1@@Z
	 ?_logitmodel_clear@alglib_impl@@YAXPEAX@Z
	 ?_logitmodel_destroy@alglib_impl@@YAXPEAX@Z
	 ?_logitmodel_init@alglib_impl@@YAXPEAXPEAUae_state@1@@Z
	 ?_logitmodel_init_copy@alglib_impl@@YAXPEAX0PEAUae_state@1@@Z
	 ?_lrreport_clear@alglib_impl@@YAXPEAX@Z
	 ?_lrreport_destroy@alglib_impl@@YAXPEAX@Z
	 ?_lrreport_init@alglib_impl@@YAXPEAXPEAUae_state@1@@Z
	 ?_lrreport_init_copy@alglib_impl@@YAXPEAX0PEAUae_state@1@@Z
	 ?_mcpdreport_clear@alglib_impl@@YAXPEAX@Z
	 ?_mcpdreport_destroy@alglib_impl@@YAXPEAX@Z
	 ?_mcpdreport_init@alglib_impl@@YAXPEAXPEAUae_state@1@@Z
	 ?_mcpdreport_init_copy@alglib_impl@@YAXPEAX0PEAUae_state@1@@Z
	 ?_mcpdstate_clear@alglib_impl@@YAXPEAX@Z
	 ?_mcpdstate_destroy@alglib_impl@@YAXPEAX@Z
	 ?_mcpdstate_init@alglib_impl@@YAXPEAXPEAUae_state@1@@Z
	 ?_mcpdstate_init_copy@alglib_impl@@YAXPEAX0PEAUae_state@1@@Z
	 ?_mlpcvreport_clear@alglib_impl@@YAXPEAX@Z
	 ?_mlpcvreport_destroy@alglib_impl@@YAXPEAX@Z
	 ?_mlpcvreport_init@alglib_impl@@YAXPEAXPEAUae_state@1@@Z
	 ?_mlpcvreport_init_copy@alglib_impl@@YAXPEAX0PEAUae_state@1@@Z
	 ?_mlpensemble_clear@alglib_impl@@YAXPEAX@Z
	 ?_mlpensemble_destroy@alglib_impl@@YAXPEAX@Z
	 ?_mlpensemble_init@alglib_impl@@YAXPEAXPEAUae_state@1@@Z
	 ?_mlpensemble_init_copy@alglib_impl@@YAXPEAX0PEAUae_state@1@@Z
	 ?_mlpetrnsession_clear@alglib_impl@@YAXPEAX@Z
	 ?_mlpetrnsession_destroy@alglib_impl@@YAXPEAX@Z
	 ?_mlpetrnsession_init@alglib_impl@@YAXPEAXPEAUae_state@1@@Z
	 ?_mlpetrnsession_init_copy@alglib_impl@@YAXPEAX0PEAUae_state@1@@Z
	 ?_mlpparallelizationcv_clear@alglib_impl@@YAXPEAX@Z
	 ?_mlpparallelizationcv_destroy@alglib_impl@@YAXPEAX@Z
	 ?_mlpparallelizationcv_init@alglib_impl@@YAXPEAXPEAUae_state@1@@Z
	 ?_mlpparallelizationcv_init_copy@alglib_impl@@YAXPEAX0PEAUae_state@1@@Z
	 ?_mlpreport_clear@alglib_impl@@YAXPEAX@Z
	 ?_mlpreport_destroy@alglib_impl@@YAXPEAX@Z
	 ?_mlpreport_init@alglib_impl@@YAXPEAXPEAUae_state@1@@Z
	 ?_mlpreport_init_copy@alglib_impl@@YAXPEAX0PEAUae_state@1@@Z
	 ?_mlptrainer_clear@alglib_impl@@YAXPEAX@Z
	 ?_mlptrainer_destroy@alglib_impl@@YAXPEAX@Z
	 ?_mlptrainer_init@alglib_impl@@YAXPEAXPEAUae_state@1@@Z
	 ?_mlptrainer_init_copy@alglib_impl@@YAXPEAX0PEAUae_state@1@@Z
	 ?_mnlreport_clear@alglib_impl@@YAXPEAX@Z
	 ?_mnlreport_destroy@alglib_impl@@YAXPEAX@Z
	 ?_mnlreport_init@alglib_impl@@YAXPEAXPEAUae_state@1@@Z
	 ?_mnlreport_init_copy@alglib_impl@@YAXPEAX0PEAUae_state@1@@Z
	 ?_modelerrors_clear@alglib_impl@@YAXPEAX@Z
	 ?_modelerrors_destroy@alglib_impl@@YAXPEAX@Z
	 ?_modelerrors_init@alglib_impl@@YAXPEAXPEAUae_state@1@@Z
	 ?_modelerrors_init_copy@alglib_impl@@YAXPEAX0PEAUae_state@1@@Z
	 ?_multilayerperceptron_clear@alglib_impl@@YAXPEAX@Z
	 ?_multilayerperceptron_destroy@alglib_impl@@YAXPEAX@Z
	 ?_multilayerperceptron_init@alglib_impl@@YAXPEAXPEAUae_state@1@@Z
	 ?_multilayerperceptron_init_copy@alglib_impl@@YAXPEAX0PEAUae_state@1@@Z
	 ?_pexec_clusterizergetdistances@alglib_impl@@YAXPEAUae_matrix@1@_J110PEAUae_state@1@@Z
	 ?_pexec_clusterizerrunahc@alglib_impl@@YAXPEAUclusterizerstate@1@PEAUahcreport@1@PEAUae_state@1@@Z
	 ?_pexec_clusterizerrunkmeans@alglib_impl@@YAXPEAUclusterizerstate@1@_JPEAUkmeansreport@1@PEAUae_state@1@@Z
	 ?_pexec_fisherldan@alglib_impl@@YAXPEAUae_matrix@1@_J11PEA_J0PEAUae_state@1@@Z
	 ?_pexec_mlpallerrorssparsesubset@alglib_impl@@YAXPEAUmultilayerperceptron@1@PEAUsparsematrix@1@_JPEAUae_vector@1@2PEAUmodelerrors@1@PEAUae_state@1@@Z
	 ?_pexec_mlpallerrorssubset@alglib_impl@@YAXPEAUmultilayerperceptron@1@PEAUae_matrix@1@_JPEAUae_vector@1@2PEAUmodelerrors@1@PEAUae_state@1@@Z
	 ?_pexec_mlpavgce@alglib_impl@@YANPEAUmultilayerperceptron@1@PEAUae_matrix@1@_JPEAUae_state@1@@Z
	 ?_pexec_mlpavgcesparse@alglib_impl@@YANPEAUmultilayerperceptron@1@PEAUsparsematrix@1@_JPEAUae_state@1@@Z
	 ?_pexec_mlpavgerror@alglib_impl@@YANPEAUmultilayerperceptron@1@PEAUae_matrix@1@_JPEAUae_state@1@@Z
	 ?_pexec_mlpavgerrorsparse@alglib_impl@@YANPEAUmultilayerperceptron@1@PEAUsparsematrix@1@_JPEAUae_state@1@@Z
	 ?_pexec_mlpavgrelerror@alglib_impl@@YANPEAUmultilayerperceptron@1@PEAUae_matrix@1@_JPEAUae_state@1@@Z
	 ?_pexec_mlpavgrelerrorsparse@alglib_impl@@YANPEAUmultilayerperceptron@1@PEAUsparsematrix@1@_JPEAUae_state@1@@Z
	 ?_pexec_mlpclserror@alglib_impl@@YA_JPEAUmultilayerperceptron@1@PEAUae_matrix@1@_JPEAUae_state@1@@Z
	 ?_pexec_mlpcontinuetraining@alglib_impl@@YA_NPEAUmlptrainer@1@PEAUmultilayerperceptron@1@PEAUae_state@1@@Z
	 ?_pexec_mlperror@alglib_impl@@YANPEAUmultilayerperceptron@1@PEAUae_matrix@1@_JPEAUae_state@1@@Z
	 ?_pexec_mlperrorsparse@alglib_impl@@YANPEAUmultilayerperceptron@1@PEAUsparsematrix@1@_JPEAUae_state@1@@Z
	 ?_pexec_mlperrorsparsesubset@alglib_impl@@YANPEAUmultilayerperceptron@1@PEAUsparsematrix@1@_JPEAUae_vector@1@2PEAUae_state@1@@Z
	 ?_pexec_mlperrorsubset@alglib_impl@@YANPEAUmultilayerperceptron@1@PEAUae_matrix@1@_JPEAUae_vector@1@2PEAUae_state@1@@Z
	 ?_pexec_mlpgradbatch@alglib_impl@@YAXPEAUmultilayerperceptron@1@PEAUae_matrix@1@_JPEANPEAUae_vector@1@PEAUae_state@1@@Z
	 ?_pexec_mlpgradbatchsparse@alglib_impl@@YAXPEAUmultilayerperceptron@1@PEAUsparsematrix@1@_JPEANPEAUae_vector@1@PEAUae_state@1@@Z
	 ?_pexec_mlpgradbatchsparsesubset@alglib_impl@@YAXPEAUmultilayerperceptron@1@PEAUsparsematrix@1@_JPEAUae_vector@1@2PEAN3PEAUae_state@1@@Z
	 ?_pexec_mlpgradbatchsubset@alglib_impl@@YAXPEAUmultilayerperceptron@1@PEAUae_matrix@1@_JPEAUae_vector@1@2PEAN3PEAUae_state@1@@Z
	 ?_pexec_mlpkfoldcv@alglib_impl@@YAXPEAUmlptrainer@1@PEAUmultilayerperceptron@1@_J2PEAUmlpreport@1@PEAUae_state@1@@Z
	 ?_pexec_mlprelclserror@alglib_impl@@YANPEAUmultilayerperceptron@1@PEAUae_matrix@1@_JPEAUae_state@1@@Z
	 ?_pexec_mlprelclserrorsparse@alglib_impl@@YANPEAUmultilayerperceptron@1@PEAUsparsematrix@1@_JPEAUae_state@1@@Z
	 ?_pexec_mlprmserror@alglib_impl@@YANPEAUmultilayerperceptron@1@PEAUae_matrix@1@_JPEAUae_state@1@@Z
	 ?_pexec_mlprmserrorsparse@alglib_impl@@YANPEAUmultilayerperceptron@1@PEAUsparsematrix@1@_JPEAUae_state@1@@Z
	 ?_pexec_mlptrainensemblees@alglib_impl@@YAXPEAUmlptrainer@1@PEAUmlpensemble@1@_JPEAUmlpreport@1@PEAUae_state@1@@Z
	 ?_pexec_mlptrainnetwork@alglib_impl@@YAXPEAUmlptrainer@1@PEAUmultilayerperceptron@1@_JPEAUmlpreport@1@PEAUae_state@1@@Z
	 ?_smlpgrad_clear@alglib_impl@@YAXPEAX@Z
	 ?_smlpgrad_destroy@alglib_impl@@YAXPEAX@Z
	 ?_smlpgrad_init@alglib_impl@@YAXPEAXPEAUae_state@1@@Z
	 ?_smlpgrad_init_copy@alglib_impl@@YAXPEAX0PEAUae_state@1@@Z
	 ?_smlptrnsession_clear@alglib_impl@@YAXPEAX@Z
	 ?_smlptrnsession_destroy@alglib_impl@@YAXPEAX@Z
	 ?_smlptrnsession_init@alglib_impl@@YAXPEAXPEAUae_state@1@@Z
	 ?_smlptrnsession_init_copy@alglib_impl@@YAXPEAX0PEAUae_state@1@@Z
	 ?c_ptr@_ahcreport_owner@alglib@@QEAAPEAUahcreport@alglib_impl@@XZ
	 ?c_ptr@_ahcreport_owner@alglib@@QEBAPEAUahcreport@alglib_impl@@XZ
	 ?c_ptr@_clusterizerstate_owner@alglib@@QEAAPEAUclusterizerstate@alglib_impl@@XZ
	 ?c_ptr@_clusterizerstate_owner@alglib@@QEBAPEAUclusterizerstate@alglib_impl@@XZ
	 ?c_ptr@_decisionforest_owner@alglib@@QEAAPEAUdecisionforest@alglib_impl@@XZ
	 ?c_ptr@_decisionforest_owner@alglib@@QEBAPEAUdecisionforest@alglib_impl@@XZ
	 ?c_ptr@_dfreport_owner@alglib@@QEAAPEAUdfreport@alglib_impl@@XZ
	 ?c_ptr@_dfreport_owner@alglib@@QEBAPEAUdfreport@alglib_impl@@XZ
	 ?c_ptr@_kmeansreport_owner@alglib@@QEAAPEAUkmeansreport@alglib_impl@@XZ
	 ?c_ptr@_kmeansreport_owner@alglib@@QEBAPEAUkmeansreport@alglib_impl@@XZ
	 ?c_ptr@_linearmodel_owner@alglib@@QEAAPEAUlinearmodel@alglib_impl@@XZ
	 ?c_ptr@_linearmodel_owner@alglib@@QEBAPEAUlinearmodel@alglib_impl@@XZ
	 ?c_ptr@_logitmodel_owner@alglib@@QEAAPEAUlogitmodel@alglib_impl@@XZ
	 ?c_ptr@_logitmodel_owner@alglib@@QEBAPEAUlogitmodel@alglib_impl@@XZ
	 ?c_ptr@_lrreport_owner@alglib@@QEAAPEAUlrreport@alglib_impl@@XZ
	 ?c_ptr@_lrreport_owner@alglib@@QEBAPEAUlrreport@alglib_impl@@XZ
	 ?c_ptr@_mcpdreport_owner@alglib@@QEAAPEAUmcpdreport@alglib_impl@@XZ
	 ?c_ptr@_mcpdreport_owner@alglib@@QEBAPEAUmcpdreport@alglib_impl@@XZ
	 ?c_ptr@_mcpdstate_owner@alglib@@QEAAPEAUmcpdstate@alglib_impl@@XZ
	 ?c_ptr@_mcpdstate_owner@alglib@@QEBAPEAUmcpdstate@alglib_impl@@XZ
	 ?c_ptr@_mlpcvreport_owner@alglib@@QEAAPEAUmlpcvreport@alglib_impl@@XZ
	 ?c_ptr@_mlpcvreport_owner@alglib@@QEBAPEAUmlpcvreport@alglib_impl@@XZ
	 ?c_ptr@_mlpensemble_owner@alglib@@QEAAPEAUmlpensemble@alglib_impl@@XZ
	 ?c_ptr@_mlpensemble_owner@alglib@@QEBAPEAUmlpensemble@alglib_impl@@XZ
	 ?c_ptr@_mlpreport_owner@alglib@@QEAAPEAUmlpreport@alglib_impl@@XZ
	 ?c_ptr@_mlpreport_owner@alglib@@QEBAPEAUmlpreport@alglib_impl@@XZ
	 ?c_ptr@_mlptrainer_owner@alglib@@QEAAPEAUmlptrainer@alglib_impl@@XZ
	 ?c_ptr@_mlptrainer_owner@alglib@@QEBAPEAUmlptrainer@alglib_impl@@XZ
	 ?c_ptr@_mnlreport_owner@alglib@@QEAAPEAUmnlreport@alglib_impl@@XZ
	 ?c_ptr@_mnlreport_owner@alglib@@QEBAPEAUmnlreport@alglib_impl@@XZ
	 ?c_ptr@_modelerrors_owner@alglib@@QEAAPEAUmodelerrors@alglib_impl@@XZ
	 ?c_ptr@_modelerrors_owner@alglib@@QEBAPEAUmodelerrors@alglib_impl@@XZ
	 ?c_ptr@_multilayerperceptron_owner@alglib@@QEAAPEAUmultilayerperceptron@alglib_impl@@XZ
	 ?c_ptr@_multilayerperceptron_owner@alglib@@QEBAPEAUmultilayerperceptron@alglib_impl@@XZ
	 ?clusterizercreate@alglib@@YAXAEAVclusterizerstate@1@@Z
	 ?clusterizercreate@alglib_impl@@YAXPEAUclusterizerstate@1@PEAUae_state@1@@Z
	 ?clusterizergetdistances@alglib@@YAXAEBVreal_2d_array@1@_J11AEAV21@@Z
	 ?clusterizergetdistances@alglib_impl@@YAXPEAUae_matrix@1@_J110PEAUae_state@1@@Z
	 ?clusterizergetdistancesbuf@alglib_impl@@YAXPEAUapbuffers@1@PEAUae_matrix@1@_J221PEAUae_state@1@@Z
	 ?clusterizergetkclusters@alglib@@YAXAEBVahcreport@1@_JAEAVinteger_1d_array@1@2@Z
	 ?clusterizergetkclusters@alglib_impl@@YAXPEAUahcreport@1@_JPEAUae_vector@1@2PEAUae_state@1@@Z
	 ?clusterizerrunahc@alglib@@YAXAEBVclusterizerstate@1@AEAVahcreport@1@@Z
	 ?clusterizerrunahc@alglib_impl@@YAXPEAUclusterizerstate@1@PEAUahcreport@1@PEAUae_state@1@@Z
	 ?clusterizerrunkmeans@alglib@@YAXAEBVclusterizerstate@1@_JAEAVkmeansreport@1@@Z
	 ?clusterizerrunkmeans@alglib_impl@@YAXPEAUclusterizerstate@1@_JPEAUkmeansreport@1@PEAUae_state@1@@Z
	 ?clusterizerseparatedbycorr@alglib@@YAXAEBVahcreport@1@NAEA_JAEAVinteger_1d_array@1@2@Z
	 ?clusterizerseparatedbycorr@alglib_impl@@YAXPEAUahcreport@1@NPEA_JPEAUae_vector@1@2PEAUae_state@1@@Z
	 ?clusterizerseparatedbydist@alglib@@YAXAEBVahcreport@1@NAEA_JAEAVinteger_1d_array@1@2@Z
	 ?clusterizerseparatedbydist@alglib_impl@@YAXPEAUahcreport@1@NPEA_JPEAUae_vector@1@2PEAUae_state@1@@Z
	 ?clusterizersetahcalgo@alglib@@YAXAEBVclusterizerstate@1@_J@Z
	 ?clusterizersetahcalgo@alglib_impl@@YAXPEAUclusterizerstate@1@_JPEAUae_state@1@@Z
	 ?clusterizersetdistances@alglib@@YAXAEBVclusterizerstate@1@AEBVreal_2d_array@1@_J_N@Z
	 ?clusterizersetdistances@alglib@@YAXAEBVclusterizerstate@1@AEBVreal_2d_array@1@_N@Z
	 ?clusterizersetdistances@alglib_impl@@YAXPEAUclusterizerstate@1@PEAUae_matrix@1@_J_NPEAUae_state@1@@Z
	 ?clusterizersetkmeansinit@alglib@@YAXAEBVclusterizerstate@1@_J@Z
	 ?clusterizersetkmeansinit@alglib_impl@@YAXPEAUclusterizerstate@1@_JPEAUae_state@1@@Z
	 ?clusterizersetkmeanslimits@alglib@@YAXAEBVclusterizerstate@1@_J1@Z
	 ?clusterizersetkmeanslimits@alglib_impl@@YAXPEAUclusterizerstate@1@_J1PEAUae_state@1@@Z
	 ?clusterizersetpoints@alglib@@YAXAEBVclusterizerstate@1@AEBVreal_2d_array@1@_J@Z
	 ?clusterizersetpoints@alglib@@YAXAEBVclusterizerstate@1@AEBVreal_2d_array@1@_J22@Z
	 ?clusterizersetpoints@alglib_impl@@YAXPEAUclusterizerstate@1@PEAUae_matrix@1@_J22PEAUae_state@1@@Z
	 ?dfalloc@alglib_impl@@YAXPEAUae_serializer@1@PEAUdecisionforest@1@PEAUae_state@1@@Z
	 ?dfavgce@alglib@@YANAEBVdecisionforest@1@AEBVreal_2d_array@1@_J@Z
	 ?dfavgce@alglib_impl@@YANPEAUdecisionforest@1@PEAUae_matrix@1@_JPEAUae_state@1@@Z
	 ?dfavgerror@alglib@@YANAEBVdecisionforest@1@AEBVreal_2d_array@1@_J@Z
	 ?dfavgerror@alglib_impl@@YANPEAUdecisionforest@1@PEAUae_matrix@1@_JPEAUae_state@1@@Z
	 ?dfavgrelerror@alglib@@YANAEBVdecisionforest@1@AEBVreal_2d_array@1@_J@Z
	 ?dfavgrelerror@alglib_impl@@YANPEAUdecisionforest@1@PEAUae_matrix@1@_JPEAUae_state@1@@Z
	 ?dfbuildinternal@alglib_impl@@YAXPEAUae_matrix@1@_J111111PEA_JPEAUdecisionforest@1@PEAUdfreport@1@PEAUae_state@1@@Z
	 ?dfbuildrandomdecisionforest@alglib@@YAXAEBVreal_2d_array@1@_J111NAEA_JAEAVdecisionforest@1@AEAVdfreport@1@@Z
	 ?dfbuildrandomdecisionforest@alglib_impl@@YAXPEAUae_matrix@1@_J111NPEA_JPEAUdecisionforest@1@PEAUdfreport@1@PEAUae_state@1@@Z
	 ?dfbuildrandomdecisionforestx1@alglib@@YAXAEBVreal_2d_array@1@_J1111NAEA_JAEAVdecisionforest@1@AEAVdfreport@1@@Z
	 ?dfbuildrandomdecisionforestx1@alglib_impl@@YAXPEAUae_matrix@1@_J1111NPEA_JPEAUdecisionforest@1@PEAUdfreport@1@PEAUae_state@1@@Z
	 ?dfcopy@alglib_impl@@YAXPEAUdecisionforest@1@0PEAUae_state@1@@Z
	 ?dfprocess@alglib@@YAXAEBVdecisionforest@1@AEBVreal_1d_array@1@AEAV31@@Z
	 ?dfprocess@alglib_impl@@YAXPEAUdecisionforest@1@PEAUae_vector@1@1PEAUae_state@1@@Z
	 ?dfprocessi@alglib@@YAXAEBVdecisionforest@1@AEBVreal_1d_array@1@AEAV31@@Z
	 ?dfprocessi@alglib_impl@@YAXPEAUdecisionforest@1@PEAUae_vector@1@1PEAUae_state@1@@Z
	 ?dfrelclserror@alglib@@YANAEBVdecisionforest@1@AEBVreal_2d_array@1@_J@Z
	 ?dfrelclserror@alglib_impl@@YANPEAUdecisionforest@1@PEAUae_matrix@1@_JPEAUae_state@1@@Z
	 ?dfrmserror@alglib@@YANAEBVdecisionforest@1@AEBVreal_2d_array@1@_J@Z
	 ?dfrmserror@alglib_impl@@YANPEAUdecisionforest@1@PEAUae_matrix@1@_JPEAUae_state@1@@Z
	 ?dfserialize@alglib@@YAXAEAVdecisionforest@1@AEAV?$basic_string@DU?$char_traits@D@std@@V?$allocator@D@2@@std@@@Z
	 ?dfserialize@alglib_impl@@YAXPEAUae_serializer@1@PEAUdecisionforest@1@PEAUae_state@1@@Z
	 ?dfunserialize@alglib@@YAXAEAV?$basic_string@DU?$char_traits@D@std@@V?$allocator@D@2@@std@@AEAVdecisionforest@1@@Z
	 ?dfunserialize@alglib_impl@@YAXPEAUae_serializer@1@PEAUdecisionforest@1@PEAUae_state@1@@Z
	 ?dserraccumulate@alglib_impl@@YAXPEAUae_vector@1@00PEAUae_state@1@@Z
	 ?dserrallocate@alglib_impl@@YAX_JPEAUae_vector@1@PEAUae_state@1@@Z
	 ?dserrfinish@alglib_impl@@YAXPEAUae_vector@1@PEAUae_state@1@@Z
	 ?dsgetmeanmindistance@alglib_impl@@YANPEAUae_matrix@1@_J1PEAUae_state@1@@Z
	 ?dsnormalize@alglib_impl@@YAXPEAUae_matrix@1@_J1PEA_JPEAUae_vector@1@3PEAUae_state@1@@Z
	 ?dsnormalizec@alglib_impl@@YAXPEAUae_matrix@1@_J1PEA_JPEAUae_vector@1@3PEAUae_state@1@@Z
	 ?dsoptimalsplit2@alglib@@YAXAEBVreal_1d_array@1@AEBVinteger_1d_array@1@_JAEA_JAEAN44444@Z
	 ?dsoptimalsplit2@alglib_impl@@YAXPEAUae_vector@1@0_JPEA_JPEAN33333PEAUae_state@1@@Z
	 ?dsoptimalsplit2fast@alglib@@YAXAEAVreal_1d_array@1@AEAVinteger_1d_array@1@1101_J2NAEA_JAEAN44@Z
	 ?dsoptimalsplit2fast@alglib_impl@@YAXPEAUae_vector@1@00000_J1NPEA_JPEAN33PEAUae_state@1@@Z
	 ?dsoptimalsplitk@alglib_impl@@YAXPEAUae_vector@1@0_J11PEA_J02PEANPEAUae_state@1@@Z
	 ?dssplitk@alglib_impl@@YAXPEAUae_vector@1@0_J11PEA_J02PEANPEAUae_state@1@@Z
	 ?dstie@alglib_impl@@YAXPEAUae_vector@1@_J0PEA_J00PEAUae_state@1@@Z
	 ?dstiefasti@alglib_impl@@YAXPEAUae_vector@1@0_J0PEA_J00PEAUae_state@1@@Z
	 ?filterema@alglib@@YAXAEAVreal_1d_array@1@_JN@Z
	 ?filterema@alglib@@YAXAEAVreal_1d_array@1@N@Z
	 ?filterema@alglib_impl@@YAXPEAUae_vector@1@_JNPEAUae_state@1@@Z
	 ?filterlrma@alglib@@YAXAEAVreal_1d_array@1@_J@Z
	 ?filterlrma@alglib@@YAXAEAVreal_1d_array@1@_J1@Z
	 ?filterlrma@alglib_impl@@YAXPEAUae_vector@1@_J1PEAUae_state@1@@Z
	 ?filtersma@alglib@@YAXAEAVreal_1d_array@1@_J@Z
	 ?filtersma@alglib@@YAXAEAVreal_1d_array@1@_J1@Z
	 ?filtersma@alglib_impl@@YAXPEAUae_vector@1@_J1PEAUae_state@1@@Z
	 ?fisherlda@alglib@@YAXAEBVreal_2d_array@1@_J11AEA_JAEAVreal_1d_array@1@@Z
	 ?fisherlda@alglib_impl@@YAXPEAUae_matrix@1@_J11PEA_JPEAUae_vector@1@PEAUae_state@1@@Z
	 ?fisherldan@alglib@@YAXAEBVreal_2d_array@1@_J11AEA_JAEAV21@@Z
	 ?fisherldan@alglib_impl@@YAXPEAUae_matrix@1@_J11PEA_J0PEAUae_state@1@@Z
	 ?kmeansgenerate@alglib@@YAXAEBVreal_2d_array@1@_J111AEA_JAEAV21@AEAVinteger_1d_array@1@@Z
	 ?kmeansgenerate@alglib_impl@@YAXPEAUae_matrix@1@_J111PEA_J0PEAUae_vector@1@PEAUae_state@1@@Z
	 ?kmeansgenerateinternal@alglib_impl@@YAXPEAUae_matrix@1@_J11111_NPEA_J30202PEAUae_vector@1@PEANPEAUkmeansbuffers@1@PEAUae_state@1@@Z
	 ?kmeansinitbuf@alglib_impl@@YAXPEAUkmeansbuffers@1@PEAUae_state@1@@Z
	 ?kmeansupdatedistances@alglib_impl@@YAXPEAUae_matrix@1@_J11011PEAUae_vector@1@2PEAUae_shared_pool@1@PEAUae_state@1@@Z
	 ?lravgerror@alglib@@YANAEBVlinearmodel@1@AEBVreal_2d_array@1@_J@Z
	 ?lravgerror@alglib_impl@@YANPEAUlinearmodel@1@PEAUae_matrix@1@_JPEAUae_state@1@@Z
	 ?lravgrelerror@alglib@@YANAEBVlinearmodel@1@AEBVreal_2d_array@1@_J@Z
	 ?lravgrelerror@alglib_impl@@YANPEAUlinearmodel@1@PEAUae_matrix@1@_JPEAUae_state@1@@Z
	 ?lrbuild@alglib@@YAXAEBVreal_2d_array@1@_J1AEA_JAEAVlinearmodel@1@AEAVlrreport@1@@Z
	 ?lrbuild@alglib_impl@@YAXPEAUae_matrix@1@_J1PEA_JPEAUlinearmodel@1@PEAUlrreport@1@PEAUae_state@1@@Z
	 ?lrbuilds@alglib@@YAXAEBVreal_2d_array@1@AEBVreal_1d_array@1@_J2AEA_JAEAVlinearmodel@1@AEAVlrreport@1@@Z
	 ?lrbuilds@alglib_impl@@YAXPEAUae_matrix@1@PEAUae_vector@1@_J2PEA_JPEAUlinearmodel@1@PEAUlrreport@1@PEAUae_state@1@@Z
	 ?lrbuildz@alglib@@YAXAEBVreal_2d_array@1@_J1AEA_JAEAVlinearmodel@1@AEAVlrreport@1@@Z
	 ?lrbuildz@alglib_impl@@YAXPEAUae_matrix@1@_J1PEA_JPEAUlinearmodel@1@PEAUlrreport@1@PEAUae_state@1@@Z
	 ?lrbuildzs@alglib@@YAXAEBVreal_2d_array@1@AEBVreal_1d_array@1@_J2AEA_JAEAVlinearmodel@1@AEAVlrreport@1@@Z
	 ?lrbuildzs@alglib_impl@@YAXPEAUae_matrix@1@PEAUae_vector@1@_J2PEA_JPEAUlinearmodel@1@PEAUlrreport@1@PEAUae_state@1@@Z
	 ?lrcopy@alglib_impl@@YAXPEAUlinearmodel@1@0PEAUae_state@1@@Z
	 ?lrline@alglib_impl@@YAXPEAUae_matrix@1@_JPEA_JPEAN3PEAUae_state@1@@Z
	 ?lrlines@alglib_impl@@YAXPEAUae_matrix@1@PEAUae_vector@1@_JPEA_JPEAN444444PEAUae_state@1@@Z
	 ?lrpack@alglib@@YAXAEBVreal_1d_array@1@_JAEAVlinearmodel@1@@Z
	 ?lrpack@alglib_impl@@YAXPEAUae_vector@1@_JPEAUlinearmodel@1@PEAUae_state@1@@Z
	 ?lrprocess@alglib@@YANAEBVlinearmodel@1@AEBVreal_1d_array@1@@Z
	 ?lrprocess@alglib_impl@@YANPEAUlinearmodel@1@PEAUae_vector@1@PEAUae_state@1@@Z
	 ?lrrmserror@alglib@@YANAEBVlinearmodel@1@AEBVreal_2d_array@1@_J@Z
	 ?lrrmserror@alglib_impl@@YANPEAUlinearmodel@1@PEAUae_matrix@1@_JPEAUae_state@1@@Z
	 ?lrunpack@alglib@@YAXAEBVlinearmodel@1@AEAVreal_1d_array@1@AEA_J@Z
	 ?lrunpack@alglib_impl@@YAXPEAUlinearmodel@1@PEAUae_vector@1@PEA_JPEAUae_state@1@@Z
	 ?mcpdaddbc@alglib@@YAXAEBVmcpdstate@1@_J1NN@Z
	 ?mcpdaddbc@alglib_impl@@YAXPEAUmcpdstate@1@_J1NNPEAUae_state@1@@Z
	 ?mcpdaddec@alglib@@YAXAEBVmcpdstate@1@_J1N@Z
	 ?mcpdaddec@alglib_impl@@YAXPEAUmcpdstate@1@_J1NPEAUae_state@1@@Z
	 ?mcpdaddtrack@alglib@@YAXAEBVmcpdstate@1@AEBVreal_2d_array@1@@Z
	 ?mcpdaddtrack@alglib@@YAXAEBVmcpdstate@1@AEBVreal_2d_array@1@_J@Z
	 ?mcpdaddtrack@alglib_impl@@YAXPEAUmcpdstate@1@PEAUae_matrix@1@_JPEAUae_state@1@@Z
	 ?mcpdcreate@alglib@@YAX_JAEAVmcpdstate@1@@Z
	 ?mcpdcreate@alglib_impl@@YAX_JPEAUmcpdstate@1@PEAUae_state@1@@Z
	 ?mcpdcreateentry@alglib@@YAX_J0AEAVmcpdstate@1@@Z
	 ?mcpdcreateentry@alglib_impl@@YAX_J0PEAUmcpdstate@1@PEAUae_state@1@@Z
	 ?mcpdcreateentryexit@alglib@@YAX_J00AEAVmcpdstate@1@@Z
	 ?mcpdcreateentryexit@alglib_impl@@YAX_J00PEAUmcpdstate@1@PEAUae_state@1@@Z
	 ?mcpdcreateexit@alglib@@YAX_J0AEAVmcpdstate@1@@Z
	 ?mcpdcreateexit@alglib_impl@@YAX_J0PEAUmcpdstate@1@PEAUae_state@1@@Z
	 ?mcpdresults@alglib@@YAXAEBVmcpdstate@1@AEAVreal_2d_array@1@AEAVmcpdreport@1@@Z
	 ?mcpdresults@alglib_impl@@YAXPEAUmcpdstate@1@PEAUae_matrix@1@PEAUmcpdreport@1@PEAUae_state@1@@Z
	 ?mcpdsetbc@alglib@@YAXAEBVmcpdstate@1@AEBVreal_2d_array@1@1@Z
	 ?mcpdsetbc@alglib_impl@@YAXPEAUmcpdstate@1@PEAUae_matrix@1@1PEAUae_state@1@@Z
	 ?mcpdsetec@alglib@@YAXAEBVmcpdstate@1@AEBVreal_2d_array@1@@Z
	 ?mcpdsetec@alglib_impl@@YAXPEAUmcpdstate@1@PEAUae_matrix@1@PEAUae_state@1@@Z
	 ?mcpdsetlc@alglib@@YAXAEBVmcpdstate@1@AEBVreal_2d_array@1@AEBVinteger_1d_array@1@@Z
	 ?mcpdsetlc@alglib@@YAXAEBVmcpdstate@1@AEBVreal_2d_array@1@AEBVinteger_1d_array@1@_J@Z
	 ?mcpdsetlc@alglib_impl@@YAXPEAUmcpdstate@1@PEAUae_matrix@1@PEAUae_vector@1@_JPEAUae_state@1@@Z
	 ?mcpdsetpredictionweights@alglib@@YAXAEBVmcpdstate@1@AEBVreal_1d_array@1@@Z
	 ?mcpdsetpredictionweights@alglib_impl@@YAXPEAUmcpdstate@1@PEAUae_vector@1@PEAUae_state@1@@Z
	 ?mcpdsetprior@alglib@@YAXAEBVmcpdstate@1@AEBVreal_2d_array@1@@Z
	 ?mcpdsetprior@alglib_impl@@YAXPEAUmcpdstate@1@PEAUae_matrix@1@PEAUae_state@1@@Z
	 ?mcpdsettikhonovregularizer@alglib@@YAXAEBVmcpdstate@1@N@Z
	 ?mcpdsettikhonovregularizer@alglib_impl@@YAXPEAUmcpdstate@1@NPEAUae_state@1@@Z
	 ?mcpdsolve@alglib@@YAXAEBVmcpdstate@1@@Z
	 ?mcpdsolve@alglib_impl@@YAXPEAUmcpdstate@1@PEAUae_state@1@@Z
	 ?mlpactivationfunction@alglib@@YAXN_JAEAN11@Z
	 ?mlpactivationfunction@alglib_impl@@YAXN_JPEAN11PEAUae_state@1@@Z
	 ?mlpallerrorssparsesubset@alglib@@YAXAEBVmultilayerperceptron@1@AEBVsparsematrix@1@_JAEBVinteger_1d_array@1@2AEAVmodelerrors@1@@Z
	 ?mlpallerrorssparsesubset@alglib_impl@@YAXPEAUmultilayerperceptron@1@PEAUsparsematrix@1@_JPEAUae_vector@1@2PEAUmodelerrors@1@PEAUae_state@1@@Z
	 ?mlpallerrorssubset@alglib@@YAXAEBVmultilayerperceptron@1@AEBVreal_2d_array@1@_JAEBVinteger_1d_array@1@2AEAVmodelerrors@1@@Z
	 ?mlpallerrorssubset@alglib_impl@@YAXPEAUmultilayerperceptron@1@PEAUae_matrix@1@_JPEAUae_vector@1@2PEAUmodelerrors@1@PEAUae_state@1@@Z
	 ?mlpallerrorsx@alglib_impl@@YAXPEAUmultilayerperceptron@1@PEAUae_matrix@1@PEAUsparsematrix@1@_J3PEAUae_vector@1@333PEAUae_shared_pool@1@PEAUmodelerrors@1@PEAUae_state@1@@Z
	 ?mlpalloc@alglib_impl@@YAXPEAUae_serializer@1@PEAUmultilayerperceptron@1@PEAUae_state@1@@Z
	 ?mlpavgce@alglib@@YANAEBVmultilayerperceptron@1@AEBVreal_2d_array@1@_J@Z
	 ?mlpavgce@alglib_impl@@YANPEAUmultilayerperceptron@1@PEAUae_matrix@1@_JPEAUae_state@1@@Z
	 ?mlpavgcesparse@alglib@@YANAEBVmultilayerperceptron@1@AEBVsparsematrix@1@_J@Z
	 ?mlpavgcesparse@alglib_impl@@YANPEAUmultilayerperceptron@1@PEAUsparsematrix@1@_JPEAUae_state@1@@Z
	 ?mlpavgerror@alglib@@YANAEBVmultilayerperceptron@1@AEBVreal_2d_array@1@_J@Z
	 ?mlpavgerror@alglib_impl@@YANPEAUmultilayerperceptron@1@PEAUae_matrix@1@_JPEAUae_state@1@@Z
	 ?mlpavgerrorsparse@alglib@@YANAEBVmultilayerperceptron@1@AEBVsparsematrix@1@_J@Z
	 ?mlpavgerrorsparse@alglib_impl@@YANPEAUmultilayerperceptron@1@PEAUsparsematrix@1@_JPEAUae_state@1@@Z
	 ?mlpavgrelerror@alglib@@YANAEBVmultilayerperceptron@1@AEBVreal_2d_array@1@_J@Z
	 ?mlpavgrelerror@alglib_impl@@YANPEAUmultilayerperceptron@1@PEAUae_matrix@1@_JPEAUae_state@1@@Z
	 ?mlpavgrelerrorsparse@alglib@@YANAEBVmultilayerperceptron@1@AEBVsparsematrix@1@_J@Z
	 ?mlpavgrelerrorsparse@alglib_impl@@YANPEAUmultilayerperceptron@1@PEAUsparsematrix@1@_JPEAUae_state@1@@Z
	 ?mlpclserror@alglib@@YA_JAEBVmultilayerperceptron@1@AEBVreal_2d_array@1@_J@Z
	 ?mlpclserror@alglib_impl@@YA_JPEAUmultilayerperceptron@1@PEAUae_matrix@1@_JPEAUae_state@1@@Z
	 ?mlpcontinuetraining@alglib@@YA_NAEBVmlptrainer@1@AEBVmultilayerperceptron@1@@Z
	 ?mlpcontinuetraining@alglib_impl@@YA_NPEAUmlptrainer@1@PEAUmultilayerperceptron@1@PEAUae_state@1@@Z
	 ?mlpcopy@alglib@@YAXAEBVmultilayerperceptron@1@AEAV21@@Z
	 ?mlpcopy@alglib_impl@@YAXPEAUmultilayerperceptron@1@0PEAUae_state@1@@Z
	 ?mlpcopyshared@alglib_impl@@YAXPEAUmultilayerperceptron@1@0PEAUae_state@1@@Z
	 ?mlpcopytunableparameters@alglib@@YAXAEBVmultilayerperceptron@1@0@Z
	 ?mlpcopytunableparameters@alglib_impl@@YAXPEAUmultilayerperceptron@1@0PEAUae_state@1@@Z
	 ?mlpcreate0@alglib@@YAX_J0AEAVmultilayerperceptron@1@@Z
	 ?mlpcreate0@alglib_impl@@YAX_J0PEAUmultilayerperceptron@1@PEAUae_state@1@@Z
	 ?mlpcreate1@alglib@@YAX_J00AEAVmultilayerperceptron@1@@Z
	 ?mlpcreate1@alglib_impl@@YAX_J00PEAUmultilayerperceptron@1@PEAUae_state@1@@Z
	 ?mlpcreate2@alglib@@YAX_J000AEAVmultilayerperceptron@1@@Z
	 ?mlpcreate2@alglib_impl@@YAX_J000PEAUmultilayerperceptron@1@PEAUae_state@1@@Z
	 ?mlpcreateb0@alglib@@YAX_J0NNAEAVmultilayerperceptron@1@@Z
	 ?mlpcreateb0@alglib_impl@@YAX_J0NNPEAUmultilayerperceptron@1@PEAUae_state@1@@Z
	 ?mlpcreateb1@alglib@@YAX_J00NNAEAVmultilayerperceptron@1@@Z
	 ?mlpcreateb1@alglib_impl@@YAX_J00NNPEAUmultilayerperceptron@1@PEAUae_state@1@@Z
	 ?mlpcreateb2@alglib@@YAX_J000NNAEAVmultilayerperceptron@1@@Z
	 ?mlpcreateb2@alglib_impl@@YAX_J000NNPEAUmultilayerperceptron@1@PEAUae_state@1@@Z
	 ?mlpcreatec0@alglib@@YAX_J0AEAVmultilayerperceptron@1@@Z
	 ?mlpcreatec0@alglib_impl@@YAX_J0PEAUmultilayerperceptron@1@PEAUae_state@1@@Z
	 ?mlpcreatec1@alglib@@YAX_J00AEAVmultilayerperceptron@1@@Z
	 ?mlpcreatec1@alglib_impl@@YAX_J00PEAUmultilayerperceptron@1@PEAUae_state@1@@Z
	 ?mlpcreatec2@alglib@@YAX_J000AEAVmultilayerperceptron@1@@Z
	 ?mlpcreatec2@alglib_impl@@YAX_J000PEAUmultilayerperceptron@1@PEAUae_state@1@@Z
	 ?mlpcreater0@alglib@@YAX_J0NNAEAVmultilayerperceptron@1@@Z
	 ?mlpcreater0@alglib_impl@@YAX_J0NNPEAUmultilayerperceptron@1@PEAUae_state@1@@Z
	 ?mlpcreater1@alglib@@YAX_J00NNAEAVmultilayerperceptron@1@@Z
	 ?mlpcreater1@alglib_impl@@YAX_J00NNPEAUmultilayerperceptron@1@PEAUae_state@1@@Z
	 ?mlpcreater2@alglib@@YAX_J000NNAEAVmultilayerperceptron@1@@Z
	 ?mlpcreater2@alglib_impl@@YAX_J000NNPEAUmultilayerperceptron@1@PEAUae_state@1@@Z
	 ?mlpcreatetrainer@alglib@@YAX_J0AEAVmlptrainer@1@@Z
	 ?mlpcreatetrainer@alglib_impl@@YAX_J0PEAUmlptrainer@1@PEAUae_state@1@@Z
	 ?mlpcreatetrainercls@alglib@@YAX_J0AEAVmlptrainer@1@@Z
	 ?mlpcreatetrainercls@alglib_impl@@YAX_J0PEAUmlptrainer@1@PEAUae_state@1@@Z
	 ?mlpeallerrorssparse@alglib_impl@@YAXPEAUmlpensemble@1@PEAUsparsematrix@1@_JPEAN3333PEAUae_state@1@@Z
	 ?mlpeallerrorsx@alglib_impl@@YAXPEAUmlpensemble@1@PEAUae_matrix@1@PEAUsparsematrix@1@_J3PEAUae_vector@1@333PEAUae_shared_pool@1@PEAUmodelerrors@1@PEAUae_state@1@@Z
	 ?mlpealloc@alglib_impl@@YAXPEAUae_serializer@1@PEAUmlpensemble@1@PEAUae_state@1@@Z
	 ?mlpeavgce@alglib@@YANAEBVmlpensemble@1@AEBVreal_2d_array@1@_J@Z
	 ?mlpeavgce@alglib_impl@@YANPEAUmlpensemble@1@PEAUae_matrix@1@_JPEAUae_state@1@@Z
	 ?mlpeavgerror@alglib@@YANAEBVmlpensemble@1@AEBVreal_2d_array@1@_J@Z
	 ?mlpeavgerror@alglib_impl@@YANPEAUmlpensemble@1@PEAUae_matrix@1@_JPEAUae_state@1@@Z
	 ?mlpeavgrelerror@alglib@@YANAEBVmlpensemble@1@AEBVreal_2d_array@1@_J@Z
	 ?mlpeavgrelerror@alglib_impl@@YANPEAUmlpensemble@1@PEAUae_matrix@1@_JPEAUae_state@1@@Z
	 ?mlpebagginglbfgs@alglib@@YAXAEBVmlpensemble@1@AEBVreal_2d_array@1@_JN2N2AEA_JAEAVmlpreport@1@AEAVmlpcvreport@1@@Z
	 ?mlpebagginglbfgs@alglib_impl@@YAXPEAUmlpensemble@1@PEAUae_matrix@1@_JN2N2PEA_JPEAUmlpreport@1@PEAUmlpcvreport@1@PEAUae_state@1@@Z
	 ?mlpebagginglm@alglib@@YAXAEBVmlpensemble@1@AEBVreal_2d_array@1@_JN2AEA_JAEAVmlpreport@1@AEAVmlpcvreport@1@@Z
	 ?mlpebagginglm@alglib_impl@@YAXPEAUmlpensemble@1@PEAUae_matrix@1@_JN2PEA_JPEAUmlpreport@1@PEAUmlpcvreport@1@PEAUae_state@1@@Z
	 ?mlpecopy@alglib_impl@@YAXPEAUmlpensemble@1@0PEAUae_state@1@@Z
	 ?mlpecreate0@alglib@@YAX_J00AEAVmlpensemble@1@@Z
	 ?mlpecreate0@alglib_impl@@YAX_J00PEAUmlpensemble@1@PEAUae_state@1@@Z
	 ?mlpecreate1@alglib@@YAX_J000AEAVmlpensemble@1@@Z
	 ?mlpecreate1@alglib_impl@@YAX_J000PEAUmlpensemble@1@PEAUae_state@1@@Z
	 ?mlpecreate2@alglib@@YAX_J0000AEAVmlpensemble@1@@Z
	 ?mlpecreate2@alglib_impl@@YAX_J0000PEAUmlpensemble@1@PEAUae_state@1@@Z
	 ?mlpecreateb0@alglib@@YAX_J0NN0AEAVmlpensemble@1@@Z
	 ?mlpecreateb0@alglib_impl@@YAX_J0NN0PEAUmlpensemble@1@PEAUae_state@1@@Z
	 ?mlpecreateb1@alglib@@YAX_J00NN0AEAVmlpensemble@1@@Z
	 ?mlpecreateb1@alglib_impl@@YAX_J00NN0PEAUmlpensemble@1@PEAUae_state@1@@Z
	 ?mlpecreateb2@alglib@@YAX_J000NN0AEAVmlpensemble@1@@Z
	 ?mlpecreateb2@alglib_impl@@YAX_J000NN0PEAUmlpensemble@1@PEAUae_state@1@@Z
	 ?mlpecreatec0@alglib@@YAX_J00AEAVmlpensemble@1@@Z
	 ?mlpecreatec0@alglib_impl@@YAX_J00PEAUmlpensemble@1@PEAUae_state@1@@Z
	 ?mlpecreatec1@alglib@@YAX_J000AEAVmlpensemble@1@@Z
	 ?mlpecreatec1@alglib_impl@@YAX_J000PEAUmlpensemble@1@PEAUae_state@1@@Z
	 ?mlpecreatec2@alglib@@YAX_J0000AEAVmlpensemble@1@@Z
	 ?mlpecreatec2@alglib_impl@@YAX_J0000PEAUmlpensemble@1@PEAUae_state@1@@Z
	 ?mlpecreatefromnetwork@alglib@@YAXAEBVmultilayerperceptron@1@_JAEAVmlpensemble@1@@Z
	 ?mlpecreatefromnetwork@alglib_impl@@YAXPEAUmultilayerperceptron@1@_JPEAUmlpensemble@1@PEAUae_state@1@@Z
	 ?mlpecreater0@alglib@@YAX_J0NN0AEAVmlpensemble@1@@Z
	 ?mlpecreater0@alglib_impl@@YAX_J0NN0PEAUmlpensemble@1@PEAUae_state@1@@Z
	 ?mlpecreater1@alglib@@YAX_J00NN0AEAVmlpensemble@1@@Z
	 ?mlpecreater1@alglib_impl@@YAX_J00NN0PEAUmlpensemble@1@PEAUae_state@1@@Z
	 ?mlpecreater2@alglib@@YAX_J000NN0AEAVmlpensemble@1@@Z
	 ?mlpecreater2@alglib_impl@@YAX_J000NN0PEAUmlpensemble@1@PEAUae_state@1@@Z
	 ?mlpeissoftmax@alglib@@YA_NAEBVmlpensemble@1@@Z
	 ?mlpeissoftmax@alglib_impl@@YA_NPEAUmlpensemble@1@PEAUae_state@1@@Z
	 ?mlpeprocess@alglib@@YAXAEBVmlpensemble@1@AEBVreal_1d_array@1@AEAV31@@Z
	 ?mlpeprocess@alglib_impl@@YAXPEAUmlpensemble@1@PEAUae_vector@1@1PEAUae_state@1@@Z
	 ?mlpeprocessi@alglib@@YAXAEBVmlpensemble@1@AEBVreal_1d_array@1@AEAV31@@Z
	 ?mlpeprocessi@alglib_impl@@YAXPEAUmlpensemble@1@PEAUae_vector@1@1PEAUae_state@1@@Z
	 ?mlpeproperties@alglib@@YAXAEBVmlpensemble@1@AEA_J1@Z
	 ?mlpeproperties@alglib_impl@@YAXPEAUmlpensemble@1@PEA_J1PEAUae_state@1@@Z
	 ?mlperandomize@alglib@@YAXAEBVmlpensemble@1@@Z
	 ?mlperandomize@alglib_impl@@YAXPEAUmlpensemble@1@PEAUae_state@1@@Z
	 ?mlperelclserror@alglib@@YANAEBVmlpensemble@1@AEBVreal_2d_array@1@_J@Z
	 ?mlperelclserror@alglib_impl@@YANPEAUmlpensemble@1@PEAUae_matrix@1@_JPEAUae_state@1@@Z
	 ?mlpermserror@alglib@@YANAEBVmlpensemble@1@AEBVreal_2d_array@1@_J@Z
	 ?mlpermserror@alglib_impl@@YANPEAUmlpensemble@1@PEAUae_matrix@1@_JPEAUae_state@1@@Z
	 ?mlperror@alglib@@YANAEBVmultilayerperceptron@1@AEBVreal_2d_array@1@_J@Z
	 ?mlperror@alglib_impl@@YANPEAUmultilayerperceptron@1@PEAUae_matrix@1@_JPEAUae_state@1@@Z
	 ?mlperrorn@alglib@@YANAEBVmultilayerperceptron@1@AEBVreal_2d_array@1@_J@Z
	 ?mlperrorn@alglib_impl@@YANPEAUmultilayerperceptron@1@PEAUae_matrix@1@_JPEAUae_state@1@@Z
	 ?mlperrorsparse@alglib@@YANAEBVmultilayerperceptron@1@AEBVsparsematrix@1@_J@Z
	 ?mlperrorsparse@alglib_impl@@YANPEAUmultilayerperceptron@1@PEAUsparsematrix@1@_JPEAUae_state@1@@Z
	 ?mlperrorsparsesubset@alglib@@YANAEBVmultilayerperceptron@1@AEBVsparsematrix@1@_JAEBVinteger_1d_array@1@2@Z
	 ?mlperrorsparsesubset@alglib_impl@@YANPEAUmultilayerperceptron@1@PEAUsparsematrix@1@_JPEAUae_vector@1@2PEAUae_state@1@@Z
	 ?mlperrorsubset@alglib@@YANAEBVmultilayerperceptron@1@AEBVreal_2d_array@1@_JAEBVinteger_1d_array@1@2@Z
	 ?mlperrorsubset@alglib_impl@@YANPEAUmultilayerperceptron@1@PEAUae_matrix@1@_JPEAUae_vector@1@2PEAUae_state@1@@Z
	 ?mlpeserialize@alglib@@YAXAEAVmlpensemble@1@AEAV?$basic_string@DU?$char_traits@D@std@@V?$allocator@D@2@@std@@@Z
	 ?mlpeserialize@alglib_impl@@YAXPEAUae_serializer@1@PEAUmlpensemble@1@PEAUae_state@1@@Z
	 ?mlpetraines@alglib@@YAXAEBVmlpensemble@1@AEBVreal_2d_array@1@_JN2AEA_JAEAVmlpreport@1@@Z
	 ?mlpetraines@alglib_impl@@YAXPEAUmlpensemble@1@PEAUae_matrix@1@_JN2PEA_JPEAUmlpreport@1@PEAUae_state@1@@Z
	 ?mlpeunserialize@alglib@@YAXAEAV?$basic_string@DU?$char_traits@D@std@@V?$allocator@D@2@@std@@AEAVmlpensemble@1@@Z
	 ?mlpeunserialize@alglib_impl@@YAXPEAUae_serializer@1@PEAUmlpensemble@1@PEAUae_state@1@@Z
	 ?mlpexporttunableparameters@alglib_impl@@YAXPEAUmultilayerperceptron@1@PEAUae_vector@1@PEA_JPEAUae_state@1@@Z
	 ?mlpgetinputscaling@alglib@@YAXAEBVmultilayerperceptron@1@_JAEAN2@Z
	 ?mlpgetinputscaling@alglib_impl@@YAXPEAUmultilayerperceptron@1@_JPEAN2PEAUae_state@1@@Z
	 ?mlpgetinputscount@alglib@@YA_JAEBVmultilayerperceptron@1@@Z
	 ?mlpgetinputscount@alglib_impl@@YA_JPEAUmultilayerperceptron@1@PEAUae_state@1@@Z
	 ?mlpgetlayerscount@alglib@@YA_JAEBVmultilayerperceptron@1@@Z
	 ?mlpgetlayerscount@alglib_impl@@YA_JPEAUmultilayerperceptron@1@PEAUae_state@1@@Z
	 ?mlpgetlayersize@alglib@@YA_JAEBVmultilayerperceptron@1@_J@Z
	 ?mlpgetlayersize@alglib_impl@@YA_JPEAUmultilayerperceptron@1@_JPEAUae_state@1@@Z
	 ?mlpgetneuroninfo@alglib@@YAXAEBVmultilayerperceptron@1@_J1AEA_JAEAN@Z
	 ?mlpgetneuroninfo@alglib_impl@@YAXPEAUmultilayerperceptron@1@_J1PEA_JPEANPEAUae_state@1@@Z
	 ?mlpgetoutputscaling@alglib@@YAXAEBVmultilayerperceptron@1@_JAEAN2@Z
	 ?mlpgetoutputscaling@alglib_impl@@YAXPEAUmultilayerperceptron@1@_JPEAN2PEAUae_state@1@@Z
	 ?mlpgetoutputscount@alglib@@YA_JAEBVmultilayerperceptron@1@@Z
	 ?mlpgetoutputscount@alglib_impl@@YA_JPEAUmultilayerperceptron@1@PEAUae_state@1@@Z
	 ?mlpgetweight@alglib@@YANAEBVmultilayerperceptron@1@_J111@Z
	 ?mlpgetweight@alglib_impl@@YANPEAUmultilayerperceptron@1@_J111PEAUae_state@1@@Z
	 ?mlpgetweightscount@alglib@@YA_JAEBVmultilayerperceptron@1@@Z
	 ?mlpgetweightscount@alglib_impl@@YA_JPEAUmultilayerperceptron@1@PEAUae_state@1@@Z
	 ?mlpgrad@alglib@@YAXAEBVmultilayerperceptron@1@AEBVreal_1d_array@1@1AEANAEAV31@@Z
	 ?mlpgrad@alglib_impl@@YAXPEAUmultilayerperceptron@1@PEAUae_vector@1@1PEAN1PEAUae_state@1@@Z
	 ?mlpgradbatch@alglib@@YAXAEBVmultilayerperceptron@1@AEBVreal_2d_array@1@_JAEANAEAVreal_1d_array@1@@Z
	 ?mlpgradbatch@alglib_impl@@YAXPEAUmultilayerperceptron@1@PEAUae_matrix@1@_JPEANPEAUae_vector@1@PEAUae_state@1@@Z
	 ?mlpgradbatchsparse@alglib@@YAXAEBVmultilayerperceptron@1@AEBVsparsematrix@1@_JAEANAEAVreal_1d_array@1@@Z
	 ?mlpgradbatchsparse@alglib_impl@@YAXPEAUmultilayerperceptron@1@PEAUsparsematrix@1@_JPEANPEAUae_vector@1@PEAUae_state@1@@Z
	 ?mlpgradbatchsparsesubset@alglib@@YAXAEBVmultilayerperceptron@1@AEBVsparsematrix@1@_JAEBVinteger_1d_array@1@2AEANAEAVreal_1d_array@1@@Z
	 ?mlpgradbatchsparsesubset@alglib_impl@@YAXPEAUmultilayerperceptron@1@PEAUsparsematrix@1@_JPEAUae_vector@1@2PEAN3PEAUae_state@1@@Z
	 ?mlpgradbatchsubset@alglib@@YAXAEBVmultilayerperceptron@1@AEBVreal_2d_array@1@_JAEBVinteger_1d_array@1@2AEANAEAVreal_1d_array@1@@Z
	 ?mlpgradbatchsubset@alglib_impl@@YAXPEAUmultilayerperceptron@1@PEAUae_matrix@1@_JPEAUae_vector@1@2PEAN3PEAUae_state@1@@Z
	 ?mlpgradbatchx@alglib_impl@@YAXPEAUmultilayerperceptron@1@PEAUae_matrix@1@PEAUsparsematrix@1@_J3PEAUae_vector@1@333PEAUae_shared_pool@1@5PEAUae_state@1@@Z
	 ?mlpgradn@alglib@@YAXAEBVmultilayerperceptron@1@AEBVreal_1d_array@1@1AEANAEAV31@@Z
	 ?mlpgradn@alglib_impl@@YAXPEAUmultilayerperceptron@1@PEAUae_vector@1@1PEAN1PEAUae_state@1@@Z
	 ?mlpgradnbatch@alglib@@YAXAEBVmultilayerperceptron@1@AEBVreal_2d_array@1@_JAEANAEAVreal_1d_array@1@@Z
	 ?mlpgradnbatch@alglib_impl@@YAXPEAUmultilayerperceptron@1@PEAUae_matrix@1@_JPEANPEAUae_vector@1@PEAUae_state@1@@Z
	 ?mlpgradsplitcost@alglib_impl@@YA_JPEAUae_state@1@@Z
	 ?mlpgradsplitsize@alglib_impl@@YA_JPEAUae_state@1@@Z
	 ?mlphessianbatch@alglib@@YAXAEBVmultilayerperceptron@1@AEBVreal_2d_array@1@_JAEANAEAVreal_1d_array@1@AEAV31@@Z
	 ?mlphessianbatch@alglib_impl@@YAXPEAUmultilayerperceptron@1@PEAUae_matrix@1@_JPEANPEAUae_vector@1@1PEAUae_state@1@@Z
	 ?mlphessiannbatch@alglib@@YAXAEBVmultilayerperceptron@1@AEBVreal_2d_array@1@_JAEANAEAVreal_1d_array@1@AEAV31@@Z
	 ?mlphessiannbatch@alglib_impl@@YAXPEAUmultilayerperceptron@1@PEAUae_matrix@1@_JPEANPEAUae_vector@1@1PEAUae_state@1@@Z
	 ?mlpimporttunableparameters@alglib_impl@@YAXPEAUmultilayerperceptron@1@PEAUae_vector@1@PEAUae_state@1@@Z
	 ?mlpinitpreprocessor@alglib@@YAXAEBVmultilayerperceptron@1@AEBVreal_2d_array@1@_J@Z
	 ?mlpinitpreprocessor@alglib_impl@@YAXPEAUmultilayerperceptron@1@PEAUae_matrix@1@_JPEAUae_state@1@@Z
	 ?mlpinitpreprocessorsparse@alglib_impl@@YAXPEAUmultilayerperceptron@1@PEAUsparsematrix@1@_JPEAUae_state@1@@Z
	 ?mlpinitpreprocessorsparsesubset@alglib_impl@@YAXPEAUmultilayerperceptron@1@PEAUsparsematrix@1@_JPEAUae_vector@1@2PEAUae_state@1@@Z
	 ?mlpinitpreprocessorsubset@alglib_impl@@YAXPEAUmultilayerperceptron@1@PEAUae_matrix@1@_JPEAUae_vector@1@2PEAUae_state@1@@Z
	 ?mlpinternalprocessvector@alglib_impl@@YAXPEAUae_vector@1@0000000PEAUae_state@1@@Z
	 ?mlpissoftmax@alglib@@YA_NAEBVmultilayerperceptron@1@@Z
	 ?mlpissoftmax@alglib_impl@@YA_NPEAUmultilayerperceptron@1@PEAUae_state@1@@Z
	 ?mlpkfoldcv@alglib@@YAXAEBVmlptrainer@1@AEBVmultilayerperceptron@1@_J2AEAVmlpreport@1@@Z
	 ?mlpkfoldcv@alglib_impl@@YAXPEAUmlptrainer@1@PEAUmultilayerperceptron@1@_J2PEAUmlpreport@1@PEAUae_state@1@@Z
	 ?mlpkfoldcvlbfgs@alglib@@YAXAEBVmultilayerperceptron@1@AEBVreal_2d_array@1@_JN2N22AEA_JAEAVmlpreport@1@AEAVmlpcvreport@1@@Z
	 ?mlpkfoldcvlbfgs@alglib_impl@@YAXPEAUmultilayerperceptron@1@PEAUae_matrix@1@_JN2N22PEA_JPEAUmlpreport@1@PEAUmlpcvreport@1@PEAUae_state@1@@Z
	 ?mlpkfoldcvlm@alglib@@YAXAEBVmultilayerperceptron@1@AEBVreal_2d_array@1@_JN22AEA_JAEAVmlpreport@1@AEAVmlpcvreport@1@@Z
	 ?mlpkfoldcvlm@alglib_impl@@YAXPEAUmultilayerperceptron@1@PEAUae_matrix@1@_JN22PEA_JPEAUmlpreport@1@PEAUmlpcvreport@1@PEAUae_state@1@@Z
	 ?mlpntotal@alglib_impl@@YA_JPEAUmultilayerperceptron@1@PEAUae_state@1@@Z
	 ?mlpprocess@alglib@@YAXAEBVmultilayerperceptron@1@AEBVreal_1d_array@1@AEAV31@@Z
	 ?mlpprocess@alglib_impl@@YAXPEAUmultilayerperceptron@1@PEAUae_vector@1@1PEAUae_state@1@@Z
	 ?mlpprocessi@alglib@@YAXAEBVmultilayerperceptron@1@AEBVreal_1d_array@1@AEAV31@@Z
	 ?mlpprocessi@alglib_impl@@YAXPEAUmultilayerperceptron@1@PEAUae_vector@1@1PEAUae_state@1@@Z
	 ?mlpproperties@alglib@@YAXAEBVmultilayerperceptron@1@AEA_J11@Z
	 ?mlpproperties@alglib_impl@@YAXPEAUmultilayerperceptron@1@PEA_J11PEAUae_state@1@@Z
	 ?mlprandomize@alglib@@YAXAEBVmultilayerperceptron@1@@Z
	 ?mlprandomize@alglib_impl@@YAXPEAUmultilayerperceptron@1@PEAUae_state@1@@Z
	 ?mlprandomizefull@alglib@@YAXAEBVmultilayerperceptron@1@@Z
	 ?mlprandomizefull@alglib_impl@@YAXPEAUmultilayerperceptron@1@PEAUae_state@1@@Z
	 ?mlprelclserror@alglib@@YANAEBVmultilayerperceptron@1@AEBVreal_2d_array@1@_J@Z
	 ?mlprelclserror@alglib_impl@@YANPEAUmultilayerperceptron@1@PEAUae_matrix@1@_JPEAUae_state@1@@Z
	 ?mlprelclserrorsparse@alglib@@YANAEBVmultilayerperceptron@1@AEBVsparsematrix@1@_J@Z
	 ?mlprelclserrorsparse@alglib_impl@@YANPEAUmultilayerperceptron@1@PEAUsparsematrix@1@_JPEAUae_state@1@@Z
	 ?mlprmserror@alglib@@YANAEBVmultilayerperceptron@1@AEBVreal_2d_array@1@_J@Z
	 ?mlprmserror@alglib_impl@@YANPEAUmultilayerperceptron@1@PEAUae_matrix@1@_JPEAUae_state@1@@Z
	 ?mlprmserrorsparse@alglib@@YANAEBVmultilayerperceptron@1@AEBVsparsematrix@1@_J@Z
	 ?mlprmserrorsparse@alglib_impl@@YANPEAUmultilayerperceptron@1@PEAUsparsematrix@1@_JPEAUae_state@1@@Z
	 ?mlpsamearchitecture@alglib_impl@@YA_NPEAUmultilayerperceptron@1@0PEAUae_state@1@@Z
	 ?mlpserialize@alglib@@YAXAEAVmultilayerperceptron@1@AEAV?$basic_string@DU?$char_traits@D@std@@V?$allocator@D@2@@std@@@Z
	 ?mlpserialize@alglib_impl@@YAXPEAUae_serializer@1@PEAUmultilayerperceptron@1@PEAUae_state@1@@Z
	 ?mlpserializeold@alglib_impl@@YAXPEAUmultilayerperceptron@1@PEAUae_vector@1@PEA_JPEAUae_state@1@@Z
	 ?mlpsetalgobatch@alglib@@YAXAEBVmlptrainer@1@@Z
	 ?mlpsetalgobatch@alglib_impl@@YAXPEAUmlptrainer@1@PEAUae_state@1@@Z
	 ?mlpsetcond@alglib@@YAXAEBVmlptrainer@1@N_J@Z
	 ?mlpsetcond@alglib_impl@@YAXPEAUmlptrainer@1@N_JPEAUae_state@1@@Z
	 ?mlpsetdataset@alglib@@YAXAEBVmlptrainer@1@AEBVreal_2d_array@1@_J@Z
	 ?mlpsetdataset@alglib_impl@@YAXPEAUmlptrainer@1@PEAUae_matrix@1@_JPEAUae_state@1@@Z
	 ?mlpsetdecay@alglib@@YAXAEBVmlptrainer@1@N@Z
	 ?mlpsetdecay@alglib_impl@@YAXPEAUmlptrainer@1@NPEAUae_state@1@@Z
	 ?mlpsetinputscaling@alglib@@YAXAEBVmultilayerperceptron@1@_JNN@Z
	 ?mlpsetinputscaling@alglib_impl@@YAXPEAUmultilayerperceptron@1@_JNNPEAUae_state@1@@Z
	 ?mlpsetneuroninfo@alglib@@YAXAEBVmultilayerperceptron@1@_J11N@Z
	 ?mlpsetneuroninfo@alglib_impl@@YAXPEAUmultilayerperceptron@1@_J11NPEAUae_state@1@@Z
	 ?mlpsetoutputscaling@alglib@@YAXAEBVmultilayerperceptron@1@_JNN@Z
	 ?mlpsetoutputscaling@alglib_impl@@YAXPEAUmultilayerperceptron@1@_JNNPEAUae_state@1@@Z
	 ?mlpsetsparsedataset@alglib@@YAXAEBVmlptrainer@1@AEBVsparsematrix@1@_J@Z
	 ?mlpsetsparsedataset@alglib_impl@@YAXPEAUmlptrainer@1@PEAUsparsematrix@1@_JPEAUae_state@1@@Z
	 ?mlpsetweight@alglib@@YAXAEBVmultilayerperceptron@1@_J111N@Z
	 ?mlpsetweight@alglib_impl@@YAXPEAUmultilayerperceptron@1@_J111NPEAUae_state@1@@Z
	 ?mlpstarttraining@alglib@@YAXAEBVmlptrainer@1@AEBVmultilayerperceptron@1@_N@Z
	 ?mlpstarttraining@alglib_impl@@YAXPEAUmlptrainer@1@PEAUmultilayerperceptron@1@_NPEAUae_state@1@@Z
	 ?mlptrainensemblees@alglib@@YAXAEBVmlptrainer@1@AEBVmlpensemble@1@_JAEAVmlpreport@1@@Z
	 ?mlptrainensemblees@alglib_impl@@YAXPEAUmlptrainer@1@PEAUmlpensemble@1@_JPEAUmlpreport@1@PEAUae_state@1@@Z
	 ?mlptraines@alglib@@YAXAEBVmultilayerperceptron@1@AEBVreal_2d_array@1@_J12N2AEA_JAEAVmlpreport@1@@Z
	 ?mlptraines@alglib_impl@@YAXPEAUmultilayerperceptron@1@PEAUae_matrix@1@_J12N2PEA_JPEAUmlpreport@1@PEAUae_state@1@@Z
	 ?mlptrainlbfgs@alglib@@YAXAEBVmultilayerperceptron@1@AEBVreal_2d_array@1@_JN2N2AEA_JAEAVmlpreport@1@@Z
	 ?mlptrainlbfgs@alglib_impl@@YAXPEAUmultilayerperceptron@1@PEAUae_matrix@1@_JN2N2PEA_JPEAUmlpreport@1@PEAUae_state@1@@Z
	 ?mlptrainlm@alglib@@YAXAEBVmultilayerperceptron@1@AEBVreal_2d_array@1@_JN2AEA_JAEAVmlpreport@1@@Z
	 ?mlptrainlm@alglib_impl@@YAXPEAUmultilayerperceptron@1@PEAUae_matrix@1@_JN2PEA_JPEAUmlpreport@1@PEAUae_state@1@@Z
	 ?mlptrainnetwork@alglib@@YAXAEBVmlptrainer@1@AEBVmultilayerperceptron@1@_JAEAVmlpreport@1@@Z
	 ?mlptrainnetwork@alglib_impl@@YAXPEAUmlptrainer@1@PEAUmultilayerperceptron@1@_JPEAUmlpreport@1@PEAUae_state@1@@Z
	 ?mlpunserialize@alglib@@YAXAEAV?$basic_string@DU?$char_traits@D@std@@V?$allocator@D@2@@std@@AEAVmultilayerperceptron@1@@Z
	 ?mlpunserialize@alglib_impl@@YAXPEAUae_serializer@1@PEAUmultilayerperceptron@1@PEAUae_state@1@@Z
	 ?mlpunserializeold@alglib_impl@@YAXPEAUae_vector@1@PEAUmultilayerperceptron@1@PEAUae_state@1@@Z
	 ?mnlavgce@alglib@@YANAEBVlogitmodel@1@AEBVreal_2d_array@1@_J@Z
	 ?mnlavgce@alglib_impl@@YANPEAUlogitmodel@1@PEAUae_matrix@1@_JPEAUae_state@1@@Z
	 ?mnlavgerror@alglib@@YANAEBVlogitmodel@1@AEBVreal_2d_array@1@_J@Z
	 ?mnlavgerror@alglib_impl@@YANPEAUlogitmodel@1@PEAUae_matrix@1@_JPEAUae_state@1@@Z
	 ?mnlavgrelerror@alglib@@YANAEBVlogitmodel@1@AEBVreal_2d_array@1@_J@Z
	 ?mnlavgrelerror@alglib_impl@@YANPEAUlogitmodel@1@PEAUae_matrix@1@_JPEAUae_state@1@@Z
	 ?mnlclserror@alglib@@YA_JAEBVlogitmodel@1@AEBVreal_2d_array@1@_J@Z
	 ?mnlclserror@alglib_impl@@YA_JPEAUlogitmodel@1@PEAUae_matrix@1@_JPEAUae_state@1@@Z
	 ?mnlcopy@alglib_impl@@YAXPEAUlogitmodel@1@0PEAUae_state@1@@Z
	 ?mnlpack@alglib@@YAXAEBVreal_2d_array@1@_J1AEAVlogitmodel@1@@Z
	 ?mnlpack@alglib_impl@@YAXPEAUae_matrix@1@_J1PEAUlogitmodel@1@PEAUae_state@1@@Z
	 ?mnlprocess@alglib@@YAXAEBVlogitmodel@1@AEBVreal_1d_array@1@AEAV31@@Z
	 ?mnlprocess@alglib_impl@@YAXPEAUlogitmodel@1@PEAUae_vector@1@1PEAUae_state@1@@Z
	 ?mnlprocessi@alglib@@YAXAEBVlogitmodel@1@AEBVreal_1d_array@1@AEAV31@@Z
	 ?mnlprocessi@alglib_impl@@YAXPEAUlogitmodel@1@PEAUae_vector@1@1PEAUae_state@1@@Z
	 ?mnlrelclserror@alglib@@YANAEBVlogitmodel@1@AEBVreal_2d_array@1@_J@Z
	 ?mnlrelclserror@alglib_impl@@YANPEAUlogitmodel@1@PEAUae_matrix@1@_JPEAUae_state@1@@Z
	 ?mnlrmserror@alglib@@YANAEBVlogitmodel@1@AEBVreal_2d_array@1@_J@Z
	 ?mnlrmserror@alglib_impl@@YANPEAUlogitmodel@1@PEAUae_matrix@1@_JPEAUae_state@1@@Z
	 ?mnltrainh@alglib@@YAXAEBVreal_2d_array@1@_J11AEA_JAEAVlogitmodel@1@AEAVmnlreport@1@@Z
	 ?mnltrainh@alglib_impl@@YAXPEAUae_matrix@1@_J11PEA_JPEAUlogitmodel@1@PEAUmnlreport@1@PEAUae_state@1@@Z
	 ?mnlunpack@alglib@@YAXAEBVlogitmodel@1@AEAVreal_2d_array@1@AEA_J2@Z
	 ?mnlunpack@alglib_impl@@YAXPEAUlogitmodel@1@PEAUae_matrix@1@PEA_J2PEAUae_state@1@@Z
	 ?pcabuildbasis@alglib@@YAXAEBVreal_2d_array@1@_J1AEA_JAEAVreal_1d_array@1@AEAV21@@Z
	 ?pcabuildbasis@alglib_impl@@YAXPEAUae_matrix@1@_J1PEA_JPEAUae_vector@1@0PEAUae_state@1@@Z
	 ?smp_clusterizergetdistances@alglib@@YAXAEBVreal_2d_array@1@_J11AEAV21@@Z
	 ?smp_clusterizerrunahc@alglib@@YAXAEBVclusterizerstate@1@AEAVahcreport@1@@Z
	 ?smp_clusterizerrunkmeans@alglib@@YAXAEBVclusterizerstate@1@_JAEAVkmeansreport@1@@Z
	 ?smp_fisherldan@alglib@@YAXAEBVreal_2d_array@1@_J11AEA_JAEAV21@@Z
	 ?smp_mlpallerrorssparsesubset@alglib@@YAXAEBVmultilayerperceptron@1@AEBVsparsematrix@1@_JAEBVinteger_1d_array@1@2AEAVmodelerrors@1@@Z
	 ?smp_mlpallerrorssubset@alglib@@YAXAEBVmultilayerperceptron@1@AEBVreal_2d_array@1@_JAEBVinteger_1d_array@1@2AEAVmodelerrors@1@@Z
	 ?smp_mlpavgce@alglib@@YANAEBVmultilayerperceptron@1@AEBVreal_2d_array@1@_J@Z
	 ?smp_mlpavgcesparse@alglib@@YANAEBVmultilayerperceptron@1@AEBVsparsematrix@1@_J@Z
	 ?smp_mlpavgerror@alglib@@YANAEBVmultilayerperceptron@1@AEBVreal_2d_array@1@_J@Z
	 ?smp_mlpavgerrorsparse@alglib@@YANAEBVmultilayerperceptron@1@AEBVsparsematrix@1@_J@Z
	 ?smp_mlpavgrelerror@alglib@@YANAEBVmultilayerperceptron@1@AEBVreal_2d_array@1@_J@Z
	 ?smp_mlpavgrelerrorsparse@alglib@@YANAEBVmultilayerperceptron@1@AEBVsparsematrix@1@_J@Z
	 ?smp_mlpclserror@alglib@@YA_JAEBVmultilayerperceptron@1@AEBVreal_2d_array@1@_J@Z
	 ?smp_mlpcontinuetraining@alglib@@YA_NAEBVmlptrainer@1@AEBVmultilayerperceptron@1@@Z
	 ?smp_mlperror@alglib@@YANAEBVmultilayerperceptron@1@AEBVreal_2d_array@1@_J@Z
	 ?smp_mlperrorsparse@alglib@@YANAEBVmultilayerperceptron@1@AEBVsparsematrix@1@_J@Z
	 ?smp_mlperrorsparsesubset@alglib@@YANAEBVmultilayerperceptron@1@AEBVsparsematrix@1@_JAEBVinteger_1d_array@1@2@Z
	 ?smp_mlperrorsubset@alglib@@YANAEBVmultilayerperceptron@1@AEBVreal_2d_array@1@_JAEBVinteger_1d_array@1@2@Z
	 ?smp_mlpgradbatch@alglib@@YAXAEBVmultilayerperceptron@1@AEBVreal_2d_array@1@_JAEANAEAVreal_1d_array@1@@Z
	 ?smp_mlpgradbatchsparse@alglib@@YAXAEBVmultilayerperceptron@1@AEBVsparsematrix@1@_JAEANAEAVreal_1d_array@1@@Z
	 ?smp_mlpgradbatchsparsesubset@alglib@@YAXAEBVmultilayerperceptron@1@AEBVsparsematrix@1@_JAEBVinteger_1d_array@1@2AEANAEAVreal_1d_array@1@@Z
	 ?smp_mlpgradbatchsubset@alglib@@YAXAEBVmultilayerperceptron@1@AEBVreal_2d_array@1@_JAEBVinteger_1d_array@1@2AEANAEAVreal_1d_array@1@@Z
	 ?smp_mlpkfoldcv@alglib@@YAXAEBVmlptrainer@1@AEBVmultilayerperceptron@1@_J2AEAVmlpreport@1@@Z
	 ?smp_mlprelclserror@alglib@@YANAEBVmultilayerperceptron@1@AEBVreal_2d_array@1@_J@Z
	 ?smp_mlprelclserrorsparse@alglib@@YANAEBVmultilayerperceptron@1@AEBVsparsematrix@1@_J@Z
	 ?smp_mlprmserror@alglib@@YANAEBVmultilayerperceptron@1@AEBVreal_2d_array@1@_J@Z
	 ?smp_mlprmserrorsparse@alglib@@YANAEBVmultilayerperceptron@1@AEBVsparsematrix@1@_J@Z
	 ?smp_mlptrainensemblees@alglib@@YAXAEBVmlptrainer@1@AEBVmlpensemble@1@_JAEAVmlpreport@1@@Z
	 ?smp_mlptrainnetwork@alglib@@YAXAEBVmlptrainer@1@AEBVmultilayerperceptron@1@_JAEAVmlpreport@1@@Z
	 ??_7_odesolverreport_owner@alglib@@6B@
	 ??_7_odesolverstate_owner@alglib@@6B@
	 ??_7odesolverreport@alglib@@6B@
	 ??_7odesolverstate@alglib@@6B@
	 ??_R0?AV_odesolverreport_owner@alglib@@@8
	 ??_R0?AV_odesolverstate_owner@alglib@@@8
	 ??_R0?AVodesolverreport@alglib@@@8
	 ??_R0?AVodesolverstate@alglib@@@8
	 ??_R1A@?0A@EA@_odesolverreport_owner@alglib@@8
	 ??_R1A@?0A@EA@_odesolverstate_owner@alglib@@8
	 ??_R1A@?0A@EA@odesolverreport@alglib@@8
	 ??_R1A@?0A@EA@odesolverstate@alglib@@8
	 ??_R2_odesolverreport_owner@alglib@@8
	 ??_R2_odesolverstate_owner@alglib@@8
	 ??_R2odesolverreport@alglib@@8
	 ??_R2odesolverstate@alglib@@8
	 ??_R3_odesolverreport_owner@alglib@@8
	 ??_R3_odesolverstate_owner@alglib@@8
	 ??_R3odesolverreport@alglib@@8
	 ??_R3odesolverstate@alglib@@8
	 ??_R4_odesolverreport_owner@alglib@@6B@
	 ??_R4_odesolverstate_owner@alglib@@6B@
	 ??_R4odesolverreport@alglib@@6B@
	 ??_R4odesolverstate@alglib@@6B@
	 ??0_odesolverreport_owner@alglib@@QEAA@AEBV01@@Z
	 ??0_odesolverreport_owner@alglib@@QEAA@XZ
	 ??0_odesolverstate_owner@alglib@@QEAA@AEBV01@@Z
	 ??0_odesolverstate_owner@alglib@@QEAA@XZ
	 ??0ap_error@alglib@@QEAA@AEBV01@@Z
	 ??0odesolverreport@alglib@@QEAA@AEBV01@@Z
	 ??0odesolverreport@alglib@@QEAA@XZ
	 ??0odesolverstate@alglib@@QEAA@AEBV01@@Z
	 ??0odesolverstate@alglib@@QEAA@XZ
	 ??1_odesolverreport_owner@alglib@@UEAA@XZ
	 ??1_odesolverstate_owner@alglib@@UEAA@XZ
	 ??1ap_error@alglib@@QEAA@XZ
	 ??1odesolverreport@alglib@@UEAA@XZ
	 ??1odesolverstate@alglib@@UEAA@XZ
	 ??4_odesolverreport_owner@alglib@@QEAAAEAV01@AEBV01@@Z
	 ??4_odesolverstate_owner@alglib@@QEAAAEAV01@AEBV01@@Z
	 ??4odesolverreport@alglib@@QEAAAEAV01@AEBV01@@Z
	 ??4odesolverstate@alglib@@QEAAAEAV01@AEBV01@@Z
	 ?_odesolverreport_clear@alglib_impl@@YAXPEAX@Z
	 ?_odesolverreport_destroy@alglib_impl@@YAXPEAX@Z
	 ?_odesolverreport_init@alglib_impl@@YAXPEAXPEAUae_state@1@@Z
	 ?_odesolverreport_init_copy@alglib_impl@@YAXPEAX0PEAUae_state@1@@Z
	 ?_odesolverstate_clear@alglib_impl@@YAXPEAX@Z
	 ?_odesolverstate_destroy@alglib_impl@@YAXPEAX@Z
	 ?_odesolverstate_init@alglib_impl@@YAXPEAXPEAUae_state@1@@Z
	 ?_odesolverstate_init_copy@alglib_impl@@YAXPEAX0PEAUae_state@1@@Z
	 ?c_ptr@_odesolverreport_owner@alglib@@QEAAPEAUodesolverreport@alglib_impl@@XZ
	 ?c_ptr@_odesolverreport_owner@alglib@@QEBAPEAUodesolverreport@alglib_impl@@XZ
	 ?c_ptr@_odesolverstate_owner@alglib@@QEAAPEAUodesolverstate@alglib_impl@@XZ
	 ?c_ptr@_odesolverstate_owner@alglib@@QEBAPEAUodesolverstate@alglib_impl@@XZ
	 ?odesolveriteration@alglib@@YA_NAEBVodesolverstate@1@@Z
	 ?odesolveriteration@alglib_impl@@YA_NPEAUodesolverstate@1@PEAUae_state@1@@Z
	 ?odesolverresults@alglib@@YAXAEBVodesolverstate@1@AEA_JAEAVreal_1d_array@1@AEAVreal_2d_array@1@AEAVodesolverreport@1@@Z
	 ?odesolverresults@alglib_impl@@YAXPEAUodesolverstate@1@PEA_JPEAUae_vector@1@PEAUae_matrix@1@PEAUodesolverreport@1@PEAUae_state@1@@Z
	 ?odesolverrkck@alglib@@YAXAEBVreal_1d_array@1@_J01NNAEAVodesolverstate@1@@Z
	 ?odesolverrkck@alglib@@YAXAEBVreal_1d_array@1@0NNAEAVodesolverstate@1@@Z
	 ?odesolverrkck@alglib_impl@@YAXPEAUae_vector@1@_J01NNPEAUodesolverstate@1@PEAUae_state@1@@Z
	 ?odesolversolve@alglib@@YAXAEAVodesolverstate@1@P6AXAEBVreal_1d_array@1@NAEAV31@PEAX@Z3@Z
	 ??0ap_error@alglib@@QEAA@AEBV01@@Z
	 ??1ap_error@alglib@@QEAA@XZ
	 ?convc1d@alglib@@YAXAEBVcomplex_1d_array@1@_J01AEAV21@@Z
	 ?convc1d@alglib_impl@@YAXPEAUae_vector@1@_J010PEAUae_state@1@@Z
	 ?convc1dcircular@alglib@@YAXAEBVcomplex_1d_array@1@_J01AEAV21@@Z
	 ?convc1dcircular@alglib_impl@@YAXPEAUae_vector@1@_J010PEAUae_state@1@@Z
	 ?convc1dcircularinv@alglib@@YAXAEBVcomplex_1d_array@1@_J01AEAV21@@Z
	 ?convc1dcircularinv@alglib_impl@@YAXPEAUae_vector@1@_J010PEAUae_state@1@@Z
	 ?convc1dinv@alglib@@YAXAEBVcomplex_1d_array@1@_J01AEAV21@@Z
	 ?convc1dinv@alglib_impl@@YAXPEAUae_vector@1@_J010PEAUae_state@1@@Z
	 ?convc1dx@alglib_impl@@YAXPEAUae_vector@1@_J01_N110PEAUae_state@1@@Z
	 ?convr1d@alglib@@YAXAEBVreal_1d_array@1@_J01AEAV21@@Z
	 ?convr1d@alglib_impl@@YAXPEAUae_vector@1@_J010PEAUae_state@1@@Z
	 ?convr1dcircular@alglib@@YAXAEBVreal_1d_array@1@_J01AEAV21@@Z
	 ?convr1dcircular@alglib_impl@@YAXPEAUae_vector@1@_J010PEAUae_state@1@@Z
	 ?convr1dcircularinv@alglib@@YAXAEBVreal_1d_array@1@_J01AEAV21@@Z
	 ?convr1dcircularinv@alglib_impl@@YAXPEAUae_vector@1@_J010PEAUae_state@1@@Z
	 ?convr1dinv@alglib@@YAXAEBVreal_1d_array@1@_J01AEAV21@@Z
	 ?convr1dinv@alglib_impl@@YAXPEAUae_vector@1@_J010PEAUae_state@1@@Z
	 ?convr1dx@alglib_impl@@YAXPEAUae_vector@1@_J01_N110PEAUae_state@1@@Z
	 ?corrc1d@alglib@@YAXAEBVcomplex_1d_array@1@_J01AEAV21@@Z
	 ?corrc1d@alglib_impl@@YAXPEAUae_vector@1@_J010PEAUae_state@1@@Z
	 ?corrc1dcircular@alglib@@YAXAEBVcomplex_1d_array@1@_J01AEAV21@@Z
	 ?corrc1dcircular@alglib_impl@@YAXPEAUae_vector@1@_J010PEAUae_state@1@@Z
	 ?corrr1d@alglib@@YAXAEBVreal_1d_array@1@_J01AEAV21@@Z
	 ?corrr1d@alglib_impl@@YAXPEAUae_vector@1@_J010PEAUae_state@1@@Z
	 ?corrr1dcircular@alglib@@YAXAEBVreal_1d_array@1@_J01AEAV21@@Z
	 ?corrr1dcircular@alglib_impl@@YAXPEAUae_vector@1@_J010PEAUae_state@1@@Z
	 ?fftc1d@alglib@@YAXAEAVcomplex_1d_array@1@@Z
	 ?fftc1d@alglib@@YAXAEAVcomplex_1d_array@1@_J@Z
	 ?fftc1d@alglib_impl@@YAXPEAUae_vector@1@_JPEAUae_state@1@@Z
	 ?fftc1dinv@alglib@@YAXAEAVcomplex_1d_array@1@@Z
	 ?fftc1dinv@alglib@@YAXAEAVcomplex_1d_array@1@_J@Z
	 ?fftc1dinv@alglib_impl@@YAXPEAUae_vector@1@_JPEAUae_state@1@@Z
	 ?fftr1d@alglib@@YAXAEBVreal_1d_array@1@_JAEAVcomplex_1d_array@1@@Z
	 ?fftr1d@alglib@@YAXAEBVreal_1d_array@1@AEAVcomplex_1d_array@1@@Z
	 ?fftr1d@alglib_impl@@YAXPEAUae_vector@1@_J0PEAUae_state@1@@Z
	 ?fftr1dinternaleven@alglib_impl@@YAXPEAUae_vector@1@_J0PEAUfasttransformplan@1@PEAUae_state@1@@Z
	 ?fftr1dinv@alglib@@YAXAEBVcomplex_1d_array@1@_JAEAVreal_1d_array@1@@Z
	 ?fftr1dinv@alglib@@YAXAEBVcomplex_1d_array@1@AEAVreal_1d_array@1@@Z
	 ?fftr1dinv@alglib_impl@@YAXPEAUae_vector@1@_J0PEAUae_state@1@@Z
	 ?fftr1dinvinternaleven@alglib_impl@@YAXPEAUae_vector@1@_J0PEAUfasttransformplan@1@PEAUae_state@1@@Z
	 ?fhtr1d@alglib@@YAXAEAVreal_1d_array@1@_J@Z
	 ?fhtr1d@alglib_impl@@YAXPEAUae_vector@1@_JPEAUae_state@1@@Z
	 ?fhtr1dinv@alglib@@YAXAEAVreal_1d_array@1@_J@Z
	 ?fhtr1dinv@alglib_impl@@YAXPEAUae_vector@1@_JPEAUae_state@1@@Z
	 ??_7_autogkreport_owner@alglib@@6B@
	 ??_7_autogkstate_owner@alglib@@6B@
	 ??_7autogkreport@alglib@@6B@
	 ??_7autogkstate@alglib@@6B@
	 ??_R0?AV_autogkreport_owner@alglib@@@8
	 ??_R0?AV_autogkstate_owner@alglib@@@8
	 ??_R0?AVautogkreport@alglib@@@8
	 ??_R0?AVautogkstate@alglib@@@8
	 ??_R1A@?0A@EA@_autogkreport_owner@alglib@@8
	 ??_R1A@?0A@EA@_autogkstate_owner@alglib@@8
	 ??_R1A@?0A@EA@autogkreport@alglib@@8
	 ??_R1A@?0A@EA@autogkstate@alglib@@8
	 ??_R2_autogkreport_owner@alglib@@8
	 ??_R2_autogkstate_owner@alglib@@8
	 ??_R2autogkreport@alglib@@8
	 ??_R2autogkstate@alglib@@8
	 ??_R3_autogkreport_owner@alglib@@8
	 ??_R3_autogkstate_owner@alglib@@8
	 ??_R3autogkreport@alglib@@8
	 ??_R3autogkstate@alglib@@8
	 ??_R4_autogkreport_owner@alglib@@6B@
	 ??_R4_autogkstate_owner@alglib@@6B@
	 ??_R4autogkreport@alglib@@6B@
	 ??_R4autogkstate@alglib@@6B@
	 ??0_autogkreport_owner@alglib@@QEAA@AEBV01@@Z
	 ??0_autogkreport_owner@alglib@@QEAA@XZ
	 ??0_autogkstate_owner@alglib@@QEAA@AEBV01@@Z
	 ??0_autogkstate_owner@alglib@@QEAA@XZ
	 ??0ap_error@alglib@@QEAA@AEBV01@@Z
	 ??0autogkreport@alglib@@QEAA@AEBV01@@Z
	 ??0autogkreport@alglib@@QEAA@XZ
	 ??0autogkstate@alglib@@QEAA@AEBV01@@Z
	 ??0autogkstate@alglib@@QEAA@XZ
	 ??1_autogkreport_owner@alglib@@UEAA@XZ
	 ??1_autogkstate_owner@alglib@@UEAA@XZ
	 ??1ap_error@alglib@@QEAA@XZ
	 ??1autogkreport@alglib@@UEAA@XZ
	 ??1autogkstate@alglib@@UEAA@XZ
	 ??4_autogkreport_owner@alglib@@QEAAAEAV01@AEBV01@@Z
	 ??4_autogkstate_owner@alglib@@QEAAAEAV01@AEBV01@@Z
	 ??4autogkreport@alglib@@QEAAAEAV01@AEBV01@@Z
	 ??4autogkstate@alglib@@QEAAAEAV01@AEBV01@@Z
	 ?_autogkinternalstate_clear@alglib_impl@@YAXPEAX@Z
	 ?_autogkinternalstate_destroy@alglib_impl@@YAXPEAX@Z
	 ?_autogkinternalstate_init@alglib_impl@@YAXPEAXPEAUae_state@1@@Z
	 ?_autogkinternalstate_init_copy@alglib_impl@@YAXPEAX0PEAUae_state@1@@Z
	 ?_autogkreport_clear@alglib_impl@@YAXPEAX@Z
	 ?_autogkreport_destroy@alglib_impl@@YAXPEAX@Z
	 ?_autogkreport_init@alglib_impl@@YAXPEAXPEAUae_state@1@@Z
	 ?_autogkreport_init_copy@alglib_impl@@YAXPEAX0PEAUae_state@1@@Z
	 ?_autogkstate_clear@alglib_impl@@YAXPEAX@Z
	 ?_autogkstate_destroy@alglib_impl@@YAXPEAX@Z
	 ?_autogkstate_init@alglib_impl@@YAXPEAXPEAUae_state@1@@Z
	 ?_autogkstate_init_copy@alglib_impl@@YAXPEAX0PEAUae_state@1@@Z
	 ?autogkintegrate@alglib@@YAXAEAVautogkstate@1@P6AXNNNAEANPEAX@Z2@Z
	 ?autogkiteration@alglib@@YA_NAEBVautogkstate@1@@Z
	 ?autogkiteration@alglib_impl@@YA_NPEAUautogkstate@1@PEAUae_state@1@@Z
	 ?autogkresults@alglib@@YAXAEBVautogkstate@1@AEANAEAVautogkreport@1@@Z
	 ?autogkresults@alglib_impl@@YAXPEAUautogkstate@1@PEANPEAUautogkreport@1@PEAUae_state@1@@Z
	 ?autogksingular@alglib@@YAXNNNNAEAVautogkstate@1@@Z
	 ?autogksingular@alglib_impl@@YAXNNNNPEAUautogkstate@1@PEAUae_state@1@@Z
	 ?autogksmooth@alglib@@YAXNNAEAVautogkstate@1@@Z
	 ?autogksmooth@alglib_impl@@YAXNNPEAUautogkstate@1@PEAUae_state@1@@Z
	 ?autogksmoothw@alglib@@YAXNNNAEAVautogkstate@1@@Z
	 ?autogksmoothw@alglib_impl@@YAXNNNPEAUautogkstate@1@PEAUae_state@1@@Z
	 ?c_ptr@_autogkreport_owner@alglib@@QEAAPEAUautogkreport@alglib_impl@@XZ
	 ?c_ptr@_autogkreport_owner@alglib@@QEBAPEAUautogkreport@alglib_impl@@XZ
	 ?c_ptr@_autogkstate_owner@alglib@@QEAAPEAUautogkstate@alglib_impl@@XZ
	 ?c_ptr@_autogkstate_owner@alglib@@QEBAPEAUautogkstate@alglib_impl@@XZ
	 ?gkqgenerategaussjacobi@alglib@@YAX_JNNAEA_JAEAVreal_1d_array@1@22@Z
	 ?gkqgenerategaussjacobi@alglib_impl@@YAX_JNNPEA_JPEAUae_vector@1@22PEAUae_state@1@@Z
	 ?gkqgenerategausslegendre@alglib@@YAX_JAEA_JAEAVreal_1d_array@1@22@Z
	 ?gkqgenerategausslegendre@alglib_impl@@YAX_JPEA_JPEAUae_vector@1@22PEAUae_state@1@@Z
	 ?gkqgeneraterec@alglib@@YAXAEBVreal_1d_array@1@0N_JAEA_JAEAV21@33@Z
	 ?gkqgeneraterec@alglib_impl@@YAXPEAUae_vector@1@0N_JPEA_J000PEAUae_state@1@@Z
	 ?gkqlegendrecalc@alglib@@YAX_JAEA_JAEAVreal_1d_array@1@22@Z
	 ?gkqlegendrecalc@alglib_impl@@YAX_JPEA_JPEAUae_vector@1@22PEAUae_state@1@@Z
	 ?gkqlegendretbl@alglib@@YAX_JAEAVreal_1d_array@1@11AEAN@Z
	 ?gkqlegendretbl@alglib_impl@@YAX_JPEAUae_vector@1@11PEANPEAUae_state@1@@Z
	 ?gqgenerategausshermite@alglib@@YAX_JAEA_JAEAVreal_1d_array@1@2@Z
	 ?gqgenerategausshermite@alglib_impl@@YAX_JPEA_JPEAUae_vector@1@2PEAUae_state@1@@Z
	 ?gqgenerategaussjacobi@alglib@@YAX_JNNAEA_JAEAVreal_1d_array@1@2@Z
	 ?gqgenerategaussjacobi@alglib_impl@@YAX_JNNPEA_JPEAUae_vector@1@2PEAUae_state@1@@Z
	 ?gqgenerategausslaguerre@alglib@@YAX_JNAEA_JAEAVreal_1d_array@1@2@Z
	 ?gqgenerategausslaguerre@alglib_impl@@YAX_JNPEA_JPEAUae_vector@1@2PEAUae_state@1@@Z
	 ?gqgenerategausslegendre@alglib@@YAX_JAEA_JAEAVreal_1d_array@1@2@Z
	 ?gqgenerategausslegendre@alglib_impl@@YAX_JPEA_JPEAUae_vector@1@2PEAUae_state@1@@Z
	 ?gqgenerategausslobattorec@alglib@@YAXAEBVreal_1d_array@1@0NNN_JAEA_JAEAV21@3@Z
	 ?gqgenerategausslobattorec@alglib_impl@@YAXPEAUae_vector@1@0NNN_JPEA_J00PEAUae_state@1@@Z
	 ?gqgenerategaussradaurec@alglib@@YAXAEBVreal_1d_array@1@0NN_JAEA_JAEAV21@3@Z
	 ?gqgenerategaussradaurec@alglib_impl@@YAXPEAUae_vector@1@0NN_JPEA_J00PEAUae_state@1@@Z
	 ?gqgeneraterec@alglib@@YAXAEBVreal_1d_array@1@0N_JAEA_JAEAV21@3@Z
	 ?gqgeneraterec@alglib_impl@@YAXPEAUae_vector@1@0N_JPEA_J00PEAUae_state@1@@Z
	 ??_7_barycentricfitreport_owner@alglib@@6B@
	 ??_7_barycentricinterpolant_owner@alglib@@6B@
	 ??_7_idwinterpolant_owner@alglib@@6B@
	 ??_7_lsfitreport_owner@alglib@@6B@
	 ??_7_lsfitstate_owner@alglib@@6B@
	 ??_7_polynomialfitreport_owner@alglib@@6B@
	 ??_7_pspline2interpolant_owner@alglib@@6B@
	 ??_7_pspline3interpolant_owner@alglib@@6B@
	 ??_7_rbfmodel_owner@alglib@@6B@
	 ??_7_rbfreport_owner@alglib@@6B@
	 ??_7_spline1dfitreport_owner@alglib@@6B@
	 ??_7_spline1dinterpolant_owner@alglib@@6B@
	 ??_7_spline2dinterpolant_owner@alglib@@6B@
	 ??_7_spline3dinterpolant_owner@alglib@@6B@
	 ??_7barycentricfitreport@alglib@@6B@
	 ??_7barycentricinterpolant@alglib@@6B@
	 ??_7idwinterpolant@alglib@@6B@
	 ??_7lsfitreport@alglib@@6B@
	 ??_7lsfitstate@alglib@@6B@
	 ??_7polynomialfitreport@alglib@@6B@
	 ??_7pspline2interpolant@alglib@@6B@
	 ??_7pspline3interpolant@alglib@@6B@
	 ??_7rbfmodel@alglib@@6B@
	 ??_7rbfreport@alglib@@6B@
	 ??_7spline1dfitreport@alglib@@6B@
	 ??_7spline1dinterpolant@alglib@@6B@
	 ??_7spline2dinterpolant@alglib@@6B@
	 ??_7spline3dinterpolant@alglib@@6B@
	 ??_R0?AV_barycentricfitreport_owner@alglib@@@8
	 ??_R0?AV_barycentricinterpolant_owner@alglib@@@8
	 ??_R0?AV_idwinterpolant_owner@alglib@@@8
	 ??_R0?AV_lsfitreport_owner@alglib@@@8
	 ??_R0?AV_lsfitstate_owner@alglib@@@8
	 ??_R0?AV_polynomialfitreport_owner@alglib@@@8
	 ??_R0?AV_pspline2interpolant_owner@alglib@@@8
	 ??_R0?AV_pspline3interpolant_owner@alglib@@@8
	 ??_R0?AV_rbfmodel_owner@alglib@@@8
	 ??_R0?AV_rbfreport_owner@alglib@@@8
	 ??_R0?AV_spline1dfitreport_owner@alglib@@@8
	 ??_R0?AV_spline1dinterpolant_owner@alglib@@@8
	 ??_R0?AV_spline2dinterpolant_owner@alglib@@@8
	 ??_R0?AV_spline3dinterpolant_owner@alglib@@@8
	 ??_R0?AVbarycentricfitreport@alglib@@@8
	 ??_R0?AVbarycentricinterpolant@alglib@@@8
	 ??_R0?AVidwinterpolant@alglib@@@8
	 ??_R0?AVlsfitreport@alglib@@@8
	 ??_R0?AVlsfitstate@alglib@@@8
	 ??_R0?AVpolynomialfitreport@alglib@@@8
	 ??_R0?AVpspline2interpolant@alglib@@@8
	 ??_R0?AVpspline3interpolant@alglib@@@8
	 ??_R0?AVrbfmodel@alglib@@@8
	 ??_R0?AVrbfreport@alglib@@@8
	 ??_R0?AVspline1dfitreport@alglib@@@8
	 ??_R0?AVspline1dinterpolant@alglib@@@8
	 ??_R0?AVspline2dinterpolant@alglib@@@8
	 ??_R0?AVspline3dinterpolant@alglib@@@8
	 ??_R1A@?0A@EA@_barycentricfitreport_owner@alglib@@8
	 ??_R1A@?0A@EA@_barycentricinterpolant_owner@alglib@@8
	 ??_R1A@?0A@EA@_idwinterpolant_owner@alglib@@8
	 ??_R1A@?0A@EA@_lsfitreport_owner@alglib@@8
	 ??_R1A@?0A@EA@_lsfitstate_owner@alglib@@8
	 ??_R1A@?0A@EA@_polynomialfitreport_owner@alglib@@8
	 ??_R1A@?0A@EA@_pspline2interpolant_owner@alglib@@8
	 ??_R1A@?0A@EA@_pspline3interpolant_owner@alglib@@8
	 ??_R1A@?0A@EA@_rbfmodel_owner@alglib@@8
	 ??_R1A@?0A@EA@_rbfreport_owner@alglib@@8
	 ??_R1A@?0A@EA@_spline1dfitreport_owner@alglib@@8
	 ??_R1A@?0A@EA@_spline1dinterpolant_owner@alglib@@8
	 ??_R1A@?0A@EA@_spline2dinterpolant_owner@alglib@@8
	 ??_R1A@?0A@EA@_spline3dinterpolant_owner@alglib@@8
	 ??_R1A@?0A@EA@barycentricfitreport@alglib@@8
	 ??_R1A@?0A@EA@barycentricinterpolant@alglib@@8
	 ??_R1A@?0A@EA@idwinterpolant@alglib@@8
	 ??_R1A@?0A@EA@lsfitreport@alglib@@8
	 ??_R1A@?0A@EA@lsfitstate@alglib@@8
	 ??_R1A@?0A@EA@polynomialfitreport@alglib@@8
	 ??_R1A@?0A@EA@pspline2interpolant@alglib@@8
	 ??_R1A@?0A@EA@pspline3interpolant@alglib@@8
	 ??_R1A@?0A@EA@rbfmodel@alglib@@8
	 ??_R1A@?0A@EA@rbfreport@alglib@@8
	 ??_R1A@?0A@EA@spline1dfitreport@alglib@@8
	 ??_R1A@?0A@EA@spline1dinterpolant@alglib@@8
	 ??_R1A@?0A@EA@spline2dinterpolant@alglib@@8
	 ??_R1A@?0A@EA@spline3dinterpolant@alglib@@8
	 ??_R2_barycentricfitreport_owner@alglib@@8
	 ??_R2_barycentricinterpolant_owner@alglib@@8
	 ??_R2_idwinterpolant_owner@alglib@@8
	 ??_R2_lsfitreport_owner@alglib@@8
	 ??_R2_lsfitstate_owner@alglib@@8
	 ??_R2_polynomialfitreport_owner@alglib@@8
	 ??_R2_pspline2interpolant_owner@alglib@@8
	 ??_R2_pspline3interpolant_owner@alglib@@8
	 ??_R2_rbfmodel_owner@alglib@@8
	 ??_R2_rbfreport_owner@alglib@@8
	 ??_R2_spline1dfitreport_owner@alglib@@8
	 ??_R2_spline1dinterpolant_owner@alglib@@8
	 ??_R2_spline2dinterpolant_owner@alglib@@8
	 ??_R2_spline3dinterpolant_owner@alglib@@8
	 ??_R2barycentricfitreport@alglib@@8
	 ??_R2barycentricinterpolant@alglib@@8
	 ??_R2idwinterpolant@alglib@@8
	 ??_R2lsfitreport@alglib@@8
	 ??_R2lsfitstate@alglib@@8
	 ??_R2polynomialfitreport@alglib@@8
	 ??_R2pspline2interpolant@alglib@@8
	 ??_R2pspline3interpolant@alglib@@8
	 ??_R2rbfmodel@alglib@@8
	 ??_R2rbfreport@alglib@@8
	 ??_R2spline1dfitreport@alglib@@8
	 ??_R2spline1dinterpolant@alglib@@8
	 ??_R2spline2dinterpolant@alglib@@8
	 ??_R2spline3dinterpolant@alglib@@8
	 ??_R3_barycentricfitreport_owner@alglib@@8
	 ??_R3_barycentricinterpolant_owner@alglib@@8
	 ??_R3_idwinterpolant_owner@alglib@@8
	 ??_R3_lsfitreport_owner@alglib@@8
	 ??_R3_lsfitstate_owner@alglib@@8
	 ??_R3_polynomialfitreport_owner@alglib@@8
	 ??_R3_pspline2interpolant_owner@alglib@@8
	 ??_R3_pspline3interpolant_owner@alglib@@8
	 ??_R3_rbfmodel_owner@alglib@@8
	 ??_R3_rbfreport_owner@alglib@@8
	 ??_R3_spline1dfitreport_owner@alglib@@8
	 ??_R3_spline1dinterpolant_owner@alglib@@8
	 ??_R3_spline2dinterpolant_owner@alglib@@8
	 ??_R3_spline3dinterpolant_owner@alglib@@8
	 ??_R3barycentricfitreport@alglib@@8
	 ??_R3barycentricinterpolant@alglib@@8
	 ??_R3idwinterpolant@alglib@@8
	 ??_R3lsfitreport@alglib@@8
	 ??_R3lsfitstate@alglib@@8
	 ??_R3polynomialfitreport@alglib@@8
	 ??_R3pspline2interpolant@alglib@@8
	 ??_R3pspline3interpolant@alglib@@8
	 ??_R3rbfmodel@alglib@@8
	 ??_R3rbfreport@alglib@@8
	 ??_R3spline1dfitreport@alglib@@8
	 ??_R3spline1dinterpolant@alglib@@8
	 ??_R3spline2dinterpolant@alglib@@8
	 ??_R3spline3dinterpolant@alglib@@8
	 ??_R4_barycentricfitreport_owner@alglib@@6B@
	 ??_R4_barycentricinterpolant_owner@alglib@@6B@
	 ??_R4_idwinterpolant_owner@alglib@@6B@
	 ??_R4_lsfitreport_owner@alglib@@6B@
	 ??_R4_lsfitstate_owner@alglib@@6B@
	 ??_R4_polynomialfitreport_owner@alglib@@6B@
	 ??_R4_pspline2interpolant_owner@alglib@@6B@
	 ??_R4_pspline3interpolant_owner@alglib@@6B@
	 ??_R4_rbfmodel_owner@alglib@@6B@
	 ??_R4_rbfreport_owner@alglib@@6B@
	 ??_R4_spline1dfitreport_owner@alglib@@6B@
	 ??_R4_spline1dinterpolant_owner@alglib@@6B@
	 ??_R4_spline2dinterpolant_owner@alglib@@6B@
	 ??_R4_spline3dinterpolant_owner@alglib@@6B@
	 ??_R4barycentricfitreport@alglib@@6B@
	 ??_R4barycentricinterpolant@alglib@@6B@
	 ??_R4idwinterpolant@alglib@@6B@
	 ??_R4lsfitreport@alglib@@6B@
	 ??_R4lsfitstate@alglib@@6B@
	 ??_R4polynomialfitreport@alglib@@6B@
	 ??_R4pspline2interpolant@alglib@@6B@
	 ??_R4pspline3interpolant@alglib@@6B@
	 ??_R4rbfmodel@alglib@@6B@
	 ??_R4rbfreport@alglib@@6B@
	 ??_R4spline1dfitreport@alglib@@6B@
	 ??_R4spline1dinterpolant@alglib@@6B@
	 ??_R4spline2dinterpolant@alglib@@6B@
	 ??_R4spline3dinterpolant@alglib@@6B@
	 ??0_barycentricfitreport_owner@alglib@@QEAA@AEBV01@@Z
	 ??0_barycentricfitreport_owner@alglib@@QEAA@XZ
	 ??0_barycentricinterpolant_owner@alglib@@QEAA@AEBV01@@Z
	 ??0_barycentricinterpolant_owner@alglib@@QEAA@XZ
	 ??0_idwinterpolant_owner@alglib@@QEAA@AEBV01@@Z
	 ??0_idwinterpolant_owner@alglib@@QEAA@XZ
	 ??0_lsfitreport_owner@alglib@@QEAA@AEBV01@@Z
	 ??0_lsfitreport_owner@alglib@@QEAA@XZ
	 ??0_lsfitstate_owner@alglib@@QEAA@AEBV01@@Z
	 ??0_lsfitstate_owner@alglib@@QEAA@XZ
	 ??0_polynomialfitreport_owner@alglib@@QEAA@AEBV01@@Z
	 ??0_polynomialfitreport_owner@alglib@@QEAA@XZ
	 ??0_pspline2interpolant_owner@alglib@@QEAA@AEBV01@@Z
	 ??0_pspline2interpolant_owner@alglib@@QEAA@XZ
	 ??0_pspline3interpolant_owner@alglib@@QEAA@AEBV01@@Z
	 ??0_pspline3interpolant_owner@alglib@@QEAA@XZ
	 ??0_rbfmodel_owner@alglib@@QEAA@AEBV01@@Z
	 ??0_rbfmodel_owner@alglib@@QEAA@XZ
	 ??0_rbfreport_owner@alglib@@QEAA@AEBV01@@Z
	 ??0_rbfreport_owner@alglib@@QEAA@XZ
	 ??0_spline1dfitreport_owner@alglib@@QEAA@AEBV01@@Z
	 ??0_spline1dfitreport_owner@alglib@@QEAA@XZ
	 ??0_spline1dinterpolant_owner@alglib@@QEAA@AEBV01@@Z
	 ??0_spline1dinterpolant_owner@alglib@@QEAA@XZ
	 ??0_spline2dinterpolant_owner@alglib@@QEAA@AEBV01@@Z
	 ??0_spline2dinterpolant_owner@alglib@@QEAA@XZ
	 ??0_spline3dinterpolant_owner@alglib@@QEAA@AEBV01@@Z
	 ??0_spline3dinterpolant_owner@alglib@@QEAA@XZ
	 ??0ap_error@alglib@@QEAA@AEBV01@@Z
	 ??0barycentricfitreport@alglib@@QEAA@AEBV01@@Z
	 ??0barycentricfitreport@alglib@@QEAA@XZ
	 ??0barycentricinterpolant@alglib@@QEAA@AEBV01@@Z
	 ??0barycentricinterpolant@alglib@@QEAA@XZ
	 ??0idwinterpolant@alglib@@QEAA@AEBV01@@Z
	 ??0idwinterpolant@alglib@@QEAA@XZ
	 ??0lsfitreport@alglib@@QEAA@AEBV01@@Z
	 ??0lsfitreport@alglib@@QEAA@XZ
	 ??0lsfitstate@alglib@@QEAA@AEBV01@@Z
	 ??0lsfitstate@alglib@@QEAA@XZ
	 ??0polynomialfitreport@alglib@@QEAA@AEBV01@@Z
	 ??0polynomialfitreport@alglib@@QEAA@XZ
	 ??0pspline2interpolant@alglib@@QEAA@AEBV01@@Z
	 ??0pspline2interpolant@alglib@@QEAA@XZ
	 ??0pspline3interpolant@alglib@@QEAA@AEBV01@@Z
	 ??0pspline3interpolant@alglib@@QEAA@XZ
	 ??0rbfmodel@alglib@@QEAA@AEBV01@@Z
	 ??0rbfmodel@alglib@@QEAA@XZ
	 ??0rbfreport@alglib@@QEAA@AEBV01@@Z
	 ??0rbfreport@alglib@@QEAA@XZ
	 ??0spline1dfitreport@alglib@@QEAA@AEBV01@@Z
	 ??0spline1dfitreport@alglib@@QEAA@XZ
	 ??0spline1dinterpolant@alglib@@QEAA@AEBV01@@Z
	 ??0spline1dinterpolant@alglib@@QEAA@XZ
	 ??0spline2dinterpolant@alglib@@QEAA@AEBV01@@Z
	 ??0spline2dinterpolant@alglib@@QEAA@XZ
	 ??0spline3dinterpolant@alglib@@QEAA@AEBV01@@Z
	 ??0spline3dinterpolant@alglib@@QEAA@XZ
	 ??1_barycentricfitreport_owner@alglib@@UEAA@XZ
	 ??1_barycentricinterpolant_owner@alglib@@UEAA@XZ
	 ??1_idwinterpolant_owner@alglib@@UEAA@XZ
	 ??1_lsfitreport_owner@alglib@@UEAA@XZ
	 ??1_lsfitstate_owner@alglib@@UEAA@XZ
	 ??1_polynomialfitreport_owner@alglib@@UEAA@XZ
	 ??1_pspline2interpolant_owner@alglib@@UEAA@XZ
	 ??1_pspline3interpolant_owner@alglib@@UEAA@XZ
	 ??1_rbfmodel_owner@alglib@@UEAA@XZ
	 ??1_rbfreport_owner@alglib@@UEAA@XZ
	 ??1_spline1dfitreport_owner@alglib@@UEAA@XZ
	 ??1_spline1dinterpolant_owner@alglib@@UEAA@XZ
	 ??1_spline2dinterpolant_owner@alglib@@UEAA@XZ
	 ??1_spline3dinterpolant_owner@alglib@@UEAA@XZ
	 ??1ap_error@alglib@@QEAA@XZ
	 ??1barycentricfitreport@alglib@@UEAA@XZ
	 ??1barycentricinterpolant@alglib@@UEAA@XZ
	 ??1idwinterpolant@alglib@@UEAA@XZ
	 ??1lsfitreport@alglib@@UEAA@XZ
	 ??1lsfitstate@alglib@@UEAA@XZ
	 ??1polynomialfitreport@alglib@@UEAA@XZ
	 ??1pspline2interpolant@alglib@@UEAA@XZ
	 ??1pspline3interpolant@alglib@@UEAA@XZ
	 ??1rbfmodel@alglib@@UEAA@XZ
	 ??1rbfreport@alglib@@UEAA@XZ
	 ??1spline1dfitreport@alglib@@UEAA@XZ
	 ??1spline1dinterpolant@alglib@@UEAA@XZ
	 ??1spline2dinterpolant@alglib@@UEAA@XZ
	 ??1spline3dinterpolant@alglib@@UEAA@XZ
	 ??4_barycentricfitreport_owner@alglib@@QEAAAEAV01@AEBV01@@Z
	 ??4_barycentricinterpolant_owner@alglib@@QEAAAEAV01@AEBV01@@Z
	 ??4_idwinterpolant_owner@alglib@@QEAAAEAV01@AEBV01@@Z
	 ??4_lsfitreport_owner@alglib@@QEAAAEAV01@AEBV01@@Z
	 ??4_lsfitstate_owner@alglib@@QEAAAEAV01@AEBV01@@Z
	 ??4_polynomialfitreport_owner@alglib@@QEAAAEAV01@AEBV01@@Z
	 ??4_pspline2interpolant_owner@alglib@@QEAAAEAV01@AEBV01@@Z
	 ??4_pspline3interpolant_owner@alglib@@QEAAAEAV01@AEBV01@@Z
	 ??4_rbfmodel_owner@alglib@@QEAAAEAV01@AEBV01@@Z
	 ??4_rbfreport_owner@alglib@@QEAAAEAV01@AEBV01@@Z
	 ??4_spline1dfitreport_owner@alglib@@QEAAAEAV01@AEBV01@@Z
	 ??4_spline1dinterpolant_owner@alglib@@QEAAAEAV01@AEBV01@@Z
	 ??4_spline2dinterpolant_owner@alglib@@QEAAAEAV01@AEBV01@@Z
	 ??4_spline3dinterpolant_owner@alglib@@QEAAAEAV01@AEBV01@@Z
	 ??4barycentricfitreport@alglib@@QEAAAEAV01@AEBV01@@Z
	 ??4barycentricinterpolant@alglib@@QEAAAEAV01@AEBV01@@Z
	 ??4idwinterpolant@alglib@@QEAAAEAV01@AEBV01@@Z
	 ??4lsfitreport@alglib@@QEAAAEAV01@AEBV01@@Z
	 ??4lsfitstate@alglib@@QEAAAEAV01@AEBV01@@Z
	 ??4polynomialfitreport@alglib@@QEAAAEAV01@AEBV01@@Z
	 ??4pspline2interpolant@alglib@@QEAAAEAV01@AEBV01@@Z
	 ??4pspline3interpolant@alglib@@QEAAAEAV01@AEBV01@@Z
	 ??4rbfmodel@alglib@@QEAAAEAV01@AEBV01@@Z
	 ??4rbfreport@alglib@@QEAAAEAV01@AEBV01@@Z
	 ??4spline1dfitreport@alglib@@QEAAAEAV01@AEBV01@@Z
	 ??4spline1dinterpolant@alglib@@QEAAAEAV01@AEBV01@@Z
	 ??4spline2dinterpolant@alglib@@QEAAAEAV01@AEBV01@@Z
	 ??4spline3dinterpolant@alglib@@QEAAAEAV01@AEBV01@@Z
	 ?_barycentricfitreport_clear@alglib_impl@@YAXPEAX@Z
	 ?_barycentricfitreport_destroy@alglib_impl@@YAXPEAX@Z
	 ?_barycentricfitreport_init@alglib_impl@@YAXPEAXPEAUae_state@1@@Z
	 ?_barycentricfitreport_init_copy@alglib_impl@@YAXPEAX0PEAUae_state@1@@Z
	 ?_barycentricinterpolant_clear@alglib_impl@@YAXPEAX@Z
	 ?_barycentricinterpolant_destroy@alglib_impl@@YAXPEAX@Z
	 ?_barycentricinterpolant_init@alglib_impl@@YAXPEAXPEAUae_state@1@@Z
	 ?_barycentricinterpolant_init_copy@alglib_impl@@YAXPEAX0PEAUae_state@1@@Z
	 ?_idwinterpolant_clear@alglib_impl@@YAXPEAX@Z
	 ?_idwinterpolant_destroy@alglib_impl@@YAXPEAX@Z
	 ?_idwinterpolant_init@alglib_impl@@YAXPEAXPEAUae_state@1@@Z
	 ?_idwinterpolant_init_copy@alglib_impl@@YAXPEAX0PEAUae_state@1@@Z
	 ?_lsfitreport_clear@alglib_impl@@YAXPEAX@Z
	 ?_lsfitreport_destroy@alglib_impl@@YAXPEAX@Z
	 ?_lsfitreport_init@alglib_impl@@YAXPEAXPEAUae_state@1@@Z
	 ?_lsfitreport_init_copy@alglib_impl@@YAXPEAX0PEAUae_state@1@@Z
	 ?_lsfitstate_clear@alglib_impl@@YAXPEAX@Z
	 ?_lsfitstate_destroy@alglib_impl@@YAXPEAX@Z
	 ?_lsfitstate_init@alglib_impl@@YAXPEAXPEAUae_state@1@@Z
	 ?_lsfitstate_init_copy@alglib_impl@@YAXPEAX0PEAUae_state@1@@Z
	 ?_pexec_barycentricfitfloaterhormann@alglib_impl@@YAXPEAUae_vector@1@0_J1PEA_JPEAUbarycentricinterpolant@1@PEAUbarycentricfitreport@1@PEAUae_state@1@@Z
	 ?_pexec_barycentricfitfloaterhormannwc@alglib_impl@@YAXPEAUae_vector@1@00_J00011PEA_JPEAUbarycentricinterpolant@1@PEAUbarycentricfitreport@1@PEAUae_state@1@@Z
	 ?_pexec_lsfitlinear@alglib_impl@@YAXPEAUae_vector@1@PEAUae_matrix@1@_J2PEA_J0PEAUlsfitreport@1@PEAUae_state@1@@Z
	 ?_pexec_lsfitlinearc@alglib_impl@@YAXPEAUae_vector@1@PEAUae_matrix@1@1_J22PEA_J0PEAUlsfitreport@1@PEAUae_state@1@@Z
	 ?_pexec_lsfitlinearw@alglib_impl@@YAXPEAUae_vector@1@0PEAUae_matrix@1@_J2PEA_J0PEAUlsfitreport@1@PEAUae_state@1@@Z
	 ?_pexec_lsfitlinearwc@alglib_impl@@YAXPEAUae_vector@1@0PEAUae_matrix@1@1_J22PEA_J0PEAUlsfitreport@1@PEAUae_state@1@@Z
	 ?_pexec_polynomialfit@alglib_impl@@YAXPEAUae_vector@1@0_J1PEA_JPEAUbarycentricinterpolant@1@PEAUpolynomialfitreport@1@PEAUae_state@1@@Z
	 ?_pexec_polynomialfitwc@alglib_impl@@YAXPEAUae_vector@1@00_J00011PEA_JPEAUbarycentricinterpolant@1@PEAUpolynomialfitreport@1@PEAUae_state@1@@Z
	 ?_pexec_spline1dfitcubic@alglib_impl@@YAXPEAUae_vector@1@0_J1PEA_JPEAUspline1dinterpolant@1@PEAUspline1dfitreport@1@PEAUae_state@1@@Z
	 ?_pexec_spline1dfitcubicwc@alglib_impl@@YAXPEAUae_vector@1@00_J00011PEA_JPEAUspline1dinterpolant@1@PEAUspline1dfitreport@1@PEAUae_state@1@@Z
	 ?_pexec_spline1dfithermite@alglib_impl@@YAXPEAUae_vector@1@0_J1PEA_JPEAUspline1dinterpolant@1@PEAUspline1dfitreport@1@PEAUae_state@1@@Z
	 ?_pexec_spline1dfithermitewc@alglib_impl@@YAXPEAUae_vector@1@00_J00011PEA_JPEAUspline1dinterpolant@1@PEAUspline1dfitreport@1@PEAUae_state@1@@Z
	 ?_pexec_spline1dfitpenalized@alglib_impl@@YAXPEAUae_vector@1@0_J1NPEA_JPEAUspline1dinterpolant@1@PEAUspline1dfitreport@1@PEAUae_state@1@@Z
	 ?_pexec_spline1dfitpenalizedw@alglib_impl@@YAXPEAUae_vector@1@00_J1NPEA_JPEAUspline1dinterpolant@1@PEAUspline1dfitreport@1@PEAUae_state@1@@Z
	 ?_polynomialfitreport_clear@alglib_impl@@YAXPEAX@Z
	 ?_polynomialfitreport_destroy@alglib_impl@@YAXPEAX@Z
	 ?_polynomialfitreport_init@alglib_impl@@YAXPEAXPEAUae_state@1@@Z
	 ?_polynomialfitreport_init_copy@alglib_impl@@YAXPEAX0PEAUae_state@1@@Z
	 ?_pspline2interpolant_clear@alglib_impl@@YAXPEAX@Z
	 ?_pspline2interpolant_destroy@alglib_impl@@YAXPEAX@Z
	 ?_pspline2interpolant_init@alglib_impl@@YAXPEAXPEAUae_state@1@@Z
	 ?_pspline2interpolant_init_copy@alglib_impl@@YAXPEAX0PEAUae_state@1@@Z
	 ?_pspline3interpolant_clear@alglib_impl@@YAXPEAX@Z
	 ?_pspline3interpolant_destroy@alglib_impl@@YAXPEAX@Z
	 ?_pspline3interpolant_init@alglib_impl@@YAXPEAXPEAUae_state@1@@Z
	 ?_pspline3interpolant_init_copy@alglib_impl@@YAXPEAX0PEAUae_state@1@@Z
	 ?_rbfmodel_clear@alglib_impl@@YAXPEAX@Z
	 ?_rbfmodel_destroy@alglib_impl@@YAXPEAX@Z
	 ?_rbfmodel_init@alglib_impl@@YAXPEAXPEAUae_state@1@@Z
	 ?_rbfmodel_init_copy@alglib_impl@@YAXPEAX0PEAUae_state@1@@Z
	 ?_rbfreport_clear@alglib_impl@@YAXPEAX@Z
	 ?_rbfreport_destroy@alglib_impl@@YAXPEAX@Z
	 ?_rbfreport_init@alglib_impl@@YAXPEAXPEAUae_state@1@@Z
	 ?_rbfreport_init_copy@alglib_impl@@YAXPEAX0PEAUae_state@1@@Z
	 ?_spline1dfitreport_clear@alglib_impl@@YAXPEAX@Z
	 ?_spline1dfitreport_destroy@alglib_impl@@YAXPEAX@Z
	 ?_spline1dfitreport_init@alglib_impl@@YAXPEAXPEAUae_state@1@@Z
	 ?_spline1dfitreport_init_copy@alglib_impl@@YAXPEAX0PEAUae_state@1@@Z
	 ?_spline1dinterpolant_clear@alglib_impl@@YAXPEAX@Z
	 ?_spline1dinterpolant_destroy@alglib_impl@@YAXPEAX@Z
	 ?_spline1dinterpolant_init@alglib_impl@@YAXPEAXPEAUae_state@1@@Z
	 ?_spline1dinterpolant_init_copy@alglib_impl@@YAXPEAX0PEAUae_state@1@@Z
	 ?_spline2dinterpolant_clear@alglib_impl@@YAXPEAX@Z
	 ?_spline2dinterpolant_destroy@alglib_impl@@YAXPEAX@Z
	 ?_spline2dinterpolant_init@alglib_impl@@YAXPEAXPEAUae_state@1@@Z
	 ?_spline2dinterpolant_init_copy@alglib_impl@@YAXPEAX0PEAUae_state@1@@Z
	 ?_spline3dinterpolant_clear@alglib_impl@@YAXPEAX@Z
	 ?_spline3dinterpolant_destroy@alglib_impl@@YAXPEAX@Z
	 ?_spline3dinterpolant_init@alglib_impl@@YAXPEAXPEAUae_state@1@@Z
	 ?_spline3dinterpolant_init_copy@alglib_impl@@YAXPEAX0PEAUae_state@1@@Z
	 ?barycentricbuildfloaterhormann@alglib@@YAXAEBVreal_1d_array@1@0_J1AEAVbarycentricinterpolant@1@@Z
	 ?barycentricbuildfloaterhormann@alglib_impl@@YAXPEAUae_vector@1@0_J1PEAUbarycentricinterpolant@1@PEAUae_state@1@@Z
	 ?barycentricbuildxyw@alglib@@YAXAEBVreal_1d_array@1@00_JAEAVbarycentricinterpolant@1@@Z
	 ?barycentricbuildxyw@alglib_impl@@YAXPEAUae_vector@1@00_JPEAUbarycentricinterpolant@1@PEAUae_state@1@@Z
	 ?barycentriccalc@alglib@@YANAEBVbarycentricinterpolant@1@N@Z
	 ?barycentriccalc@alglib_impl@@YANPEAUbarycentricinterpolant@1@NPEAUae_state@1@@Z
	 ?barycentriccopy@alglib_impl@@YAXPEAUbarycentricinterpolant@1@0PEAUae_state@1@@Z
	 ?barycentricdiff1@alglib@@YAXAEBVbarycentricinterpolant@1@NAEAN1@Z
	 ?barycentricdiff1@alglib_impl@@YAXPEAUbarycentricinterpolant@1@NPEAN1PEAUae_state@1@@Z
	 ?barycentricdiff2@alglib@@YAXAEBVbarycentricinterpolant@1@NAEAN11@Z
	 ?barycentricdiff2@alglib_impl@@YAXPEAUbarycentricinterpolant@1@NPEAN11PEAUae_state@1@@Z
	 ?barycentricfitfloaterhormann@alglib@@YAXAEBVreal_1d_array@1@0_J1AEA_JAEAVbarycentricinterpolant@1@AEAVbarycentricfitreport@1@@Z
	 ?barycentricfitfloaterhormann@alglib_impl@@YAXPEAUae_vector@1@0_J1PEA_JPEAUbarycentricinterpolant@1@PEAUbarycentricfitreport@1@PEAUae_state@1@@Z
	 ?barycentricfitfloaterhormannwc@alglib@@YAXAEBVreal_1d_array@1@00_J00AEBVinteger_1d_array@1@11AEA_JAEAVbarycentricinterpolant@1@AEAVbarycentricfitreport@1@@Z
	 ?barycentricfitfloaterhormannwc@alglib_impl@@YAXPEAUae_vector@1@00_J00011PEA_JPEAUbarycentricinterpolant@1@PEAUbarycentricfitreport@1@PEAUae_state@1@@Z
	 ?barycentriclintransx@alglib@@YAXAEBVbarycentricinterpolant@1@NN@Z
	 ?barycentriclintransx@alglib_impl@@YAXPEAUbarycentricinterpolant@1@NNPEAUae_state@1@@Z
	 ?barycentriclintransy@alglib@@YAXAEBVbarycentricinterpolant@1@NN@Z
	 ?barycentriclintransy@alglib_impl@@YAXPEAUbarycentricinterpolant@1@NNPEAUae_state@1@@Z
	 ?barycentricunpack@alglib@@YAXAEBVbarycentricinterpolant@1@AEA_JAEAVreal_1d_array@1@22@Z
	 ?barycentricunpack@alglib_impl@@YAXPEAUbarycentricinterpolant@1@PEA_JPEAUae_vector@1@22PEAUae_state@1@@Z
	 ?bisectmethod@alglib_impl@@YA_JNNNNNNPEANPEAUae_state@1@@Z
	 ?c_ptr@_barycentricfitreport_owner@alglib@@QEAAPEAUbarycentricfitreport@alglib_impl@@XZ
	 ?c_ptr@_barycentricfitreport_owner@alglib@@QEBAPEAUbarycentricfitreport@alglib_impl@@XZ
	 ?c_ptr@_barycentricinterpolant_owner@alglib@@QEAAPEAUbarycentricinterpolant@alglib_impl@@XZ
	 ?c_ptr@_barycentricinterpolant_owner@alglib@@QEBAPEAUbarycentricinterpolant@alglib_impl@@XZ
	 ?c_ptr@_idwinterpolant_owner@alglib@@QEAAPEAUidwinterpolant@alglib_impl@@XZ
	 ?c_ptr@_idwinterpolant_owner@alglib@@QEBAPEAUidwinterpolant@alglib_impl@@XZ
	 ?c_ptr@_lsfitreport_owner@alglib@@QEAAPEAUlsfitreport@alglib_impl@@XZ
	 ?c_ptr@_lsfitreport_owner@alglib@@QEBAPEAUlsfitreport@alglib_impl@@XZ
	 ?c_ptr@_lsfitstate_owner@alglib@@QEAAPEAUlsfitstate@alglib_impl@@XZ
	 ?c_ptr@_lsfitstate_owner@alglib@@QEBAPEAUlsfitstate@alglib_impl@@XZ
	 ?c_ptr@_polynomialfitreport_owner@alglib@@QEAAPEAUpolynomialfitreport@alglib_impl@@XZ
	 ?c_ptr@_polynomialfitreport_owner@alglib@@QEBAPEAUpolynomialfitreport@alglib_impl@@XZ
	 ?c_ptr@_pspline2interpolant_owner@alglib@@QEAAPEAUpspline2interpolant@alglib_impl@@XZ
	 ?c_ptr@_pspline2interpolant_owner@alglib@@QEBAPEAUpspline2interpolant@alglib_impl@@XZ
	 ?c_ptr@_pspline3interpolant_owner@alglib@@QEAAPEAUpspline3interpolant@alglib_impl@@XZ
	 ?c_ptr@_pspline3interpolant_owner@alglib@@QEBAPEAUpspline3interpolant@alglib_impl@@XZ
	 ?c_ptr@_rbfmodel_owner@alglib@@QEAAPEAUrbfmodel@alglib_impl@@XZ
	 ?c_ptr@_rbfmodel_owner@alglib@@QEBAPEAUrbfmodel@alglib_impl@@XZ
	 ?c_ptr@_rbfreport_owner@alglib@@QEAAPEAUrbfreport@alglib_impl@@XZ
	 ?c_ptr@_rbfreport_owner@alglib@@QEBAPEAUrbfreport@alglib_impl@@XZ
	 ?c_ptr@_spline1dfitreport_owner@alglib@@QEAAPEAUspline1dfitreport@alglib_impl@@XZ
	 ?c_ptr@_spline1dfitreport_owner@alglib@@QEBAPEAUspline1dfitreport@alglib_impl@@XZ
	 ?c_ptr@_spline1dinterpolant_owner@alglib@@QEAAPEAUspline1dinterpolant@alglib_impl@@XZ
	 ?c_ptr@_spline1dinterpolant_owner@alglib@@QEBAPEAUspline1dinterpolant@alglib_impl@@XZ
	 ?c_ptr@_spline2dinterpolant_owner@alglib@@QEAAPEAUspline2dinterpolant@alglib_impl@@XZ
	 ?c_ptr@_spline2dinterpolant_owner@alglib@@QEBAPEAUspline2dinterpolant@alglib_impl@@XZ
	 ?c_ptr@_spline3dinterpolant_owner@alglib@@QEAAPEAUspline3dinterpolant@alglib_impl@@XZ
	 ?c_ptr@_spline3dinterpolant_owner@alglib@@QEBAPEAUspline3dinterpolant@alglib_impl@@XZ
	 ?heapsortdpoints@alglib_impl@@YAXPEAUae_vector@1@00_JPEAUae_state@1@@Z
	 ?idwbuildmodifiedshepard@alglib@@YAXAEBVreal_2d_array@1@_J1111AEAVidwinterpolant@1@@Z
	 ?idwbuildmodifiedshepard@alglib_impl@@YAXPEAUae_matrix@1@_J1111PEAUidwinterpolant@1@PEAUae_state@1@@Z
	 ?idwbuildmodifiedshepardr@alglib@@YAXAEBVreal_2d_array@1@_J1NAEAVidwinterpolant@1@@Z
	 ?idwbuildmodifiedshepardr@alglib_impl@@YAXPEAUae_matrix@1@_J1NPEAUidwinterpolant@1@PEAUae_state@1@@Z
	 ?idwbuildnoisy@alglib@@YAXAEBVreal_2d_array@1@_J1111AEAVidwinterpolant@1@@Z
	 ?idwbuildnoisy@alglib_impl@@YAXPEAUae_matrix@1@_J1111PEAUidwinterpolant@1@PEAUae_state@1@@Z
	 ?idwcalc@alglib@@YANAEBVidwinterpolant@1@AEBVreal_1d_array@1@@Z
	 ?idwcalc@alglib_impl@@YANPEAUidwinterpolant@1@PEAUae_vector@1@PEAUae_state@1@@Z
	 ?logisticcalc4@alglib@@YANNNNNN@Z
	 ?logisticcalc4@alglib_impl@@YANNNNNNPEAUae_state@1@@Z
	 ?logisticcalc5@alglib@@YANNNNNNN@Z
	 ?logisticcalc5@alglib_impl@@YANNNNNNNPEAUae_state@1@@Z
	 ?logisticfit4@alglib@@YAXAEBVreal_1d_array@1@0_JAEAN222AEAVlsfitreport@1@@Z
	 ?logisticfit4@alglib_impl@@YAXPEAUae_vector@1@0_JPEAN222PEAUlsfitreport@1@PEAUae_state@1@@Z
	 ?logisticfit45x@alglib@@YAXAEBVreal_1d_array@1@0_JNN_NNN1AEAN3333AEAVlsfitreport@1@@Z
	 ?logisticfit45x@alglib_impl@@YAXPEAUae_vector@1@0_JNN_NNN1PEAN3333PEAUlsfitreport@1@PEAUae_state@1@@Z
	 ?logisticfit4ec@alglib@@YAXAEBVreal_1d_array@1@0_JNNAEAN222AEAVlsfitreport@1@@Z
	 ?logisticfit4ec@alglib_impl@@YAXPEAUae_vector@1@0_JNNPEAN222PEAUlsfitreport@1@PEAUae_state@1@@Z
	 ?logisticfit5@alglib@@YAXAEBVreal_1d_array@1@0_JAEAN2222AEAVlsfitreport@1@@Z
	 ?logisticfit5@alglib_impl@@YAXPEAUae_vector@1@0_JPEAN2222PEAUlsfitreport@1@PEAUae_state@1@@Z
	 ?logisticfit5ec@alglib@@YAXAEBVreal_1d_array@1@0_JNNAEAN2222AEAVlsfitreport@1@@Z
	 ?logisticfit5ec@alglib_impl@@YAXPEAUae_vector@1@0_JNNPEAN2222PEAUlsfitreport@1@PEAUae_state@1@@Z
	 ?lsfitcreatef@alglib@@YAXAEBVreal_2d_array@1@AEBVreal_1d_array@1@1_J22NAEAVlsfitstate@1@@Z
	 ?lsfitcreatef@alglib@@YAXAEBVreal_2d_array@1@AEBVreal_1d_array@1@1NAEAVlsfitstate@1@@Z
	 ?lsfitcreatef@alglib_impl@@YAXPEAUae_matrix@1@PEAUae_vector@1@1_J22NPEAUlsfitstate@1@PEAUae_state@1@@Z
	 ?lsfitcreatefg@alglib@@YAXAEBVreal_2d_array@1@AEBVreal_1d_array@1@1_J22_NAEAVlsfitstate@1@@Z
	 ?lsfitcreatefg@alglib@@YAXAEBVreal_2d_array@1@AEBVreal_1d_array@1@1_NAEAVlsfitstate@1@@Z
	 ?lsfitcreatefg@alglib_impl@@YAXPEAUae_matrix@1@PEAUae_vector@1@1_J22_NPEAUlsfitstate@1@PEAUae_state@1@@Z
	 ?lsfitcreatefgh@alglib@@YAXAEBVreal_2d_array@1@AEBVreal_1d_array@1@1_J22AEAVlsfitstate@1@@Z
	 ?lsfitcreatefgh@alglib@@YAXAEBVreal_2d_array@1@AEBVreal_1d_array@1@1AEAVlsfitstate@1@@Z
	 ?lsfitcreatefgh@alglib_impl@@YAXPEAUae_matrix@1@PEAUae_vector@1@1_J22PEAUlsfitstate@1@PEAUae_state@1@@Z
	 ?lsfitcreatewf@alglib@@YAXAEBVreal_2d_array@1@AEBVreal_1d_array@1@11_J22NAEAVlsfitstate@1@@Z
	 ?lsfitcreatewf@alglib@@YAXAEBVreal_2d_array@1@AEBVreal_1d_array@1@11NAEAVlsfitstate@1@@Z
	 ?lsfitcreatewf@alglib_impl@@YAXPEAUae_matrix@1@PEAUae_vector@1@11_J22NPEAUlsfitstate@1@PEAUae_state@1@@Z
	 ?lsfitcreatewfg@alglib@@YAXAEBVreal_2d_array@1@AEBVreal_1d_array@1@11_J22_NAEAVlsfitstate@1@@Z
	 ?lsfitcreatewfg@alglib@@YAXAEBVreal_2d_array@1@AEBVreal_1d_array@1@11_NAEAVlsfitstate@1@@Z
	 ?lsfitcreatewfg@alglib_impl@@YAXPEAUae_matrix@1@PEAUae_vector@1@11_J22_NPEAUlsfitstate@1@PEAUae_state@1@@Z
	 ?lsfitcreatewfgh@alglib@@YAXAEBVreal_2d_array@1@AEBVreal_1d_array@1@11_J22AEAVlsfitstate@1@@Z
	 ?lsfitcreatewfgh@alglib@@YAXAEBVreal_2d_array@1@AEBVreal_1d_array@1@11AEAVlsfitstate@1@@Z
	 ?lsfitcreatewfgh@alglib_impl@@YAXPEAUae_matrix@1@PEAUae_vector@1@11_J22PEAUlsfitstate@1@PEAUae_state@1@@Z
	 ?lsfitfit@alglib@@YAXAEAVlsfitstate@1@P6AXAEBVreal_1d_array@1@1AEANPEAX@ZP6AX112AEAV31@3@ZP6AX1125AEAVreal_2d_array@1@3@ZP6AX1N3@Z3@Z
	 ?lsfitfit@alglib@@YAXAEAVlsfitstate@1@P6AXAEBVreal_1d_array@1@1AEANPEAX@ZP6AX112AEAV31@3@ZP6AX1N3@Z3@Z
	 ?lsfitfit@alglib@@YAXAEAVlsfitstate@1@P6AXAEBVreal_1d_array@1@1AEANPEAX@ZP6AX1N3@Z3@Z
	 ?lsfititeration@alglib@@YA_NAEBVlsfitstate@1@@Z
	 ?lsfititeration@alglib_impl@@YA_NPEAUlsfitstate@1@PEAUae_state@1@@Z
	 ?lsfitlinear@alglib@@YAXAEBVreal_1d_array@1@AEBVreal_2d_array@1@_J2AEA_JAEAV21@AEAVlsfitreport@1@@Z
	 ?lsfitlinear@alglib@@YAXAEBVreal_1d_array@1@AEBVreal_2d_array@1@AEA_JAEAV21@AEAVlsfitreport@1@@Z
	 ?lsfitlinear@alglib_impl@@YAXPEAUae_vector@1@PEAUae_matrix@1@_J2PEA_J0PEAUlsfitreport@1@PEAUae_state@1@@Z
	 ?lsfitlinearc@alglib@@YAXAEBVreal_1d_array@1@AEBVreal_2d_array@1@1_J22AEA_JAEAV21@AEAVlsfitreport@1@@Z
	 ?lsfitlinearc@alglib@@YAXAEBVreal_1d_array@1@AEBVreal_2d_array@1@1AEA_JAEAV21@AEAVlsfitreport@1@@Z
	 ?lsfitlinearc@alglib_impl@@YAXPEAUae_vector@1@PEAUae_matrix@1@1_J22PEA_J0PEAUlsfitreport@1@PEAUae_state@1@@Z
	 ?lsfitlinearw@alglib@@YAXAEBVreal_1d_array@1@0AEBVreal_2d_array@1@_J2AEA_JAEAV21@AEAVlsfitreport@1@@Z
	 ?lsfitlinearw@alglib@@YAXAEBVreal_1d_array@1@0AEBVreal_2d_array@1@AEA_JAEAV21@AEAVlsfitreport@1@@Z
	 ?lsfitlinearw@alglib_impl@@YAXPEAUae_vector@1@0PEAUae_matrix@1@_J2PEA_J0PEAUlsfitreport@1@PEAUae_state@1@@Z
	 ?lsfitlinearwc@alglib@@YAXAEBVreal_1d_array@1@0AEBVreal_2d_array@1@1_J22AEA_JAEAV21@AEAVlsfitreport@1@@Z
	 ?lsfitlinearwc@alglib@@YAXAEBVreal_1d_array@1@0AEBVreal_2d_array@1@1AEA_JAEAV21@AEAVlsfitreport@1@@Z
	 ?lsfitlinearwc@alglib_impl@@YAXPEAUae_vector@1@0PEAUae_matrix@1@1_J22PEA_J0PEAUlsfitreport@1@PEAUae_state@1@@Z
	 ?lsfitresults@alglib@@YAXAEBVlsfitstate@1@AEA_JAEAVreal_1d_array@1@AEAVlsfitreport@1@@Z
	 ?lsfitresults@alglib_impl@@YAXPEAUlsfitstate@1@PEA_JPEAUae_vector@1@PEAUlsfitreport@1@PEAUae_state@1@@Z
	 ?lsfitscalexy@alglib_impl@@YAXPEAUae_vector@1@00_J0001PEAN22200PEAUae_state@1@@Z
	 ?lsfitsetbc@alglib@@YAXAEBVlsfitstate@1@AEBVreal_1d_array@1@1@Z
	 ?lsfitsetbc@alglib_impl@@YAXPEAUlsfitstate@1@PEAUae_vector@1@1PEAUae_state@1@@Z
	 ?lsfitsetcond@alglib@@YAXAEBVlsfitstate@1@NN_J@Z
	 ?lsfitsetcond@alglib_impl@@YAXPEAUlsfitstate@1@NN_JPEAUae_state@1@@Z
	 ?lsfitsetgradientcheck@alglib@@YAXAEBVlsfitstate@1@N@Z
	 ?lsfitsetgradientcheck@alglib_impl@@YAXPEAUlsfitstate@1@NPEAUae_state@1@@Z
	 ?lsfitsetscale@alglib@@YAXAEBVlsfitstate@1@AEBVreal_1d_array@1@@Z
	 ?lsfitsetscale@alglib_impl@@YAXPEAUlsfitstate@1@PEAUae_vector@1@PEAUae_state@1@@Z
	 ?lsfitsetstpmax@alglib@@YAXAEBVlsfitstate@1@N@Z
	 ?lsfitsetstpmax@alglib_impl@@YAXPEAUlsfitstate@1@NPEAUae_state@1@@Z
	 ?lsfitsetxrep@alglib@@YAXAEBVlsfitstate@1@_N@Z
	 ?lsfitsetxrep@alglib_impl@@YAXPEAUlsfitstate@1@_NPEAUae_state@1@@Z
	 ?lstfitpiecewiselinearrdp@alglib@@YAXAEBVreal_1d_array@1@0_JNAEAV21@2AEA_J@Z
	 ?lstfitpiecewiselinearrdp@alglib_impl@@YAXPEAUae_vector@1@0_JN00PEA_JPEAUae_state@1@@Z
	 ?lstfitpiecewiselinearrdpfixed@alglib@@YAXAEBVreal_1d_array@1@0_J1AEAV21@2AEA_J@Z
	 ?lstfitpiecewiselinearrdpfixed@alglib_impl@@YAXPEAUae_vector@1@0_J100PEA_JPEAUae_state@1@@Z
	 ?parametricrdpfixed@alglib@@YAXAEBVreal_2d_array@1@_J11NAEAV21@AEAVinteger_1d_array@1@AEA_J@Z
	 ?parametricrdpfixed@alglib_impl@@YAXPEAUae_matrix@1@_J11N0PEAUae_vector@1@PEA_JPEAUae_state@1@@Z
	 ?polynomialbar2cheb@alglib@@YAXAEBVbarycentricinterpolant@1@NNAEAVreal_1d_array@1@@Z
	 ?polynomialbar2cheb@alglib_impl@@YAXPEAUbarycentricinterpolant@1@NNPEAUae_vector@1@PEAUae_state@1@@Z
	 ?polynomialbar2pow@alglib@@YAXAEBVbarycentricinterpolant@1@AEAVreal_1d_array@1@@Z
	 ?polynomialbar2pow@alglib@@YAXAEBVbarycentricinterpolant@1@NNAEAVreal_1d_array@1@@Z
	 ?polynomialbar2pow@alglib_impl@@YAXPEAUbarycentricinterpolant@1@NNPEAUae_vector@1@PEAUae_state@1@@Z
	 ?polynomialbuild@alglib@@YAXAEBVreal_1d_array@1@0_JAEAVbarycentricinterpolant@1@@Z
	 ?polynomialbuild@alglib@@YAXAEBVreal_1d_array@1@0AEAVbarycentricinterpolant@1@@Z
	 ?polynomialbuild@alglib_impl@@YAXPEAUae_vector@1@0_JPEAUbarycentricinterpolant@1@PEAUae_state@1@@Z
	 ?polynomialbuildcheb1@alglib@@YAXNNAEBVreal_1d_array@1@_JAEAVbarycentricinterpolant@1@@Z
	 ?polynomialbuildcheb1@alglib@@YAXNNAEBVreal_1d_array@1@AEAVbarycentricinterpolant@1@@Z
	 ?polynomialbuildcheb1@alglib_impl@@YAXNNPEAUae_vector@1@_JPEAUbarycentricinterpolant@1@PEAUae_state@1@@Z
	 ?polynomialbuildcheb2@alglib@@YAXNNAEBVreal_1d_array@1@_JAEAVbarycentricinterpolant@1@@Z
	 ?polynomialbuildcheb2@alglib@@YAXNNAEBVreal_1d_array@1@AEAVbarycentricinterpolant@1@@Z
	 ?polynomialbuildcheb2@alglib_impl@@YAXNNPEAUae_vector@1@_JPEAUbarycentricinterpolant@1@PEAUae_state@1@@Z
	 ?polynomialbuildeqdist@alglib@@YAXNNAEBVreal_1d_array@1@_JAEAVbarycentricinterpolant@1@@Z
	 ?polynomialbuildeqdist@alglib@@YAXNNAEBVreal_1d_array@1@AEAVbarycentricinterpolant@1@@Z
	 ?polynomialbuildeqdist@alglib_impl@@YAXNNPEAUae_vector@1@_JPEAUbarycentricinterpolant@1@PEAUae_state@1@@Z
	 ?polynomialcalccheb1@alglib@@YANNNAEBVreal_1d_array@1@_JN@Z
	 ?polynomialcalccheb1@alglib@@YANNNAEBVreal_1d_array@1@N@Z
	 ?polynomialcalccheb1@alglib_impl@@YANNNPEAUae_vector@1@_JNPEAUae_state@1@@Z
	 ?polynomialcalccheb2@alglib@@YANNNAEBVreal_1d_array@1@_JN@Z
	 ?polynomialcalccheb2@alglib@@YANNNAEBVreal_1d_array@1@N@Z
	 ?polynomialcalccheb2@alglib_impl@@YANNNPEAUae_vector@1@_JNPEAUae_state@1@@Z
	 ?polynomialcalceqdist@alglib@@YANNNAEBVreal_1d_array@1@_JN@Z
	 ?polynomialcalceqdist@alglib@@YANNNAEBVreal_1d_array@1@N@Z
	 ?polynomialcalceqdist@alglib_impl@@YANNNPEAUae_vector@1@_JNPEAUae_state@1@@Z
	 ?polynomialcheb2bar@alglib@@YAXAEBVreal_1d_array@1@_JNNAEAVbarycentricinterpolant@1@@Z
	 ?polynomialcheb2bar@alglib@@YAXAEBVreal_1d_array@1@NNAEAVbarycentricinterpolant@1@@Z
	 ?polynomialcheb2bar@alglib_impl@@YAXPEAUae_vector@1@_JNNPEAUbarycentricinterpolant@1@PEAUae_state@1@@Z
	 ?polynomialfit@alglib@@YAXAEBVreal_1d_array@1@0_J1AEA_JAEAVbarycentricinterpolant@1@AEAVpolynomialfitreport@1@@Z
	 ?polynomialfit@alglib@@YAXAEBVreal_1d_array@1@0_JAEA_JAEAVbarycentricinterpolant@1@AEAVpolynomialfitreport@1@@Z
	 ?polynomialfit@alglib_impl@@YAXPEAUae_vector@1@0_J1PEA_JPEAUbarycentricinterpolant@1@PEAUpolynomialfitreport@1@PEAUae_state@1@@Z
	 ?polynomialfitwc@alglib@@YAXAEBVreal_1d_array@1@00_J00AEBVinteger_1d_array@1@11AEA_JAEAVbarycentricinterpolant@1@AEAVpolynomialfitreport@1@@Z
	 ?polynomialfitwc@alglib@@YAXAEBVreal_1d_array@1@0000AEBVinteger_1d_array@1@_JAEA_JAEAVbarycentricinterpolant@1@AEAVpolynomialfitreport@1@@Z
	 ?polynomialfitwc@alglib_impl@@YAXPEAUae_vector@1@00_J00011PEA_JPEAUbarycentricinterpolant@1@PEAUpolynomialfitreport@1@PEAUae_state@1@@Z
	 ?polynomialpow2bar@alglib@@YAXAEBVreal_1d_array@1@_JNNAEAVbarycentricinterpolant@1@@Z
	 ?polynomialpow2bar@alglib@@YAXAEBVreal_1d_array@1@AEAVbarycentricinterpolant@1@@Z
	 ?polynomialpow2bar@alglib_impl@@YAXPEAUae_vector@1@_JNNPEAUbarycentricinterpolant@1@PEAUae_state@1@@Z
	 ?pspline2arclength@alglib@@YANAEBVpspline2interpolant@1@NN@Z
	 ?pspline2arclength@alglib_impl@@YANPEAUpspline2interpolant@1@NNPEAUae_state@1@@Z
	 ?pspline2build@alglib@@YAXAEBVreal_2d_array@1@_J11AEAVpspline2interpolant@1@@Z
	 ?pspline2build@alglib_impl@@YAXPEAUae_matrix@1@_J11PEAUpspline2interpolant@1@PEAUae_state@1@@Z
	 ?pspline2buildperiodic@alglib@@YAXAEBVreal_2d_array@1@_J11AEAVpspline2interpolant@1@@Z
	 ?pspline2buildperiodic@alglib_impl@@YAXPEAUae_matrix@1@_J11PEAUpspline2interpolant@1@PEAUae_state@1@@Z
	 ?pspline2calc@alglib@@YAXAEBVpspline2interpolant@1@NAEAN1@Z
	 ?pspline2calc@alglib_impl@@YAXPEAUpspline2interpolant@1@NPEAN1PEAUae_state@1@@Z
	 ?pspline2diff@alglib@@YAXAEBVpspline2interpolant@1@NAEAN111@Z
	 ?pspline2diff@alglib_impl@@YAXPEAUpspline2interpolant@1@NPEAN111PEAUae_state@1@@Z
	 ?pspline2diff2@alglib@@YAXAEBVpspline2interpolant@1@NAEAN11111@Z
	 ?pspline2diff2@alglib_impl@@YAXPEAUpspline2interpolant@1@NPEAN11111PEAUae_state@1@@Z
	 ?pspline2parametervalues@alglib@@YAXAEBVpspline2interpolant@1@AEA_JAEAVreal_1d_array@1@@Z
	 ?pspline2parametervalues@alglib_impl@@YAXPEAUpspline2interpolant@1@PEA_JPEAUae_vector@1@PEAUae_state@1@@Z
	 ?pspline2tangent@alglib@@YAXAEBVpspline2interpolant@1@NAEAN1@Z
	 ?pspline2tangent@alglib_impl@@YAXPEAUpspline2interpolant@1@NPEAN1PEAUae_state@1@@Z
	 ?pspline3arclength@alglib@@YANAEBVpspline3interpolant@1@NN@Z
	 ?pspline3arclength@alglib_impl@@YANPEAUpspline3interpolant@1@NNPEAUae_state@1@@Z
	 ?pspline3build@alglib@@YAXAEBVreal_2d_array@1@_J11AEAVpspline3interpolant@1@@Z
	 ?pspline3build@alglib_impl@@YAXPEAUae_matrix@1@_J11PEAUpspline3interpolant@1@PEAUae_state@1@@Z
	 ?pspline3buildperiodic@alglib@@YAXAEBVreal_2d_array@1@_J11AEAVpspline3interpolant@1@@Z
	 ?pspline3buildperiodic@alglib_impl@@YAXPEAUae_matrix@1@_J11PEAUpspline3interpolant@1@PEAUae_state@1@@Z
	 ?pspline3calc@alglib@@YAXAEBVpspline3interpolant@1@NAEAN11@Z
	 ?pspline3calc@alglib_impl@@YAXPEAUpspline3interpolant@1@NPEAN11PEAUae_state@1@@Z
	 ?pspline3diff@alglib@@YAXAEBVpspline3interpolant@1@NAEAN11111@Z
	 ?pspline3diff@alglib_impl@@YAXPEAUpspline3interpolant@1@NPEAN11111PEAUae_state@1@@Z
	 ?pspline3diff2@alglib@@YAXAEBVpspline3interpolant@1@NAEAN11111111@Z
	 ?pspline3diff2@alglib_impl@@YAXPEAUpspline3interpolant@1@NPEAN11111111PEAUae_state@1@@Z
	 ?pspline3parametervalues@alglib@@YAXAEBVpspline3interpolant@1@AEA_JAEAVreal_1d_array@1@@Z
	 ?pspline3parametervalues@alglib_impl@@YAXPEAUpspline3interpolant@1@PEA_JPEAUae_vector@1@PEAUae_state@1@@Z
	 ?pspline3tangent@alglib@@YAXAEBVpspline3interpolant@1@NAEAN11@Z
	 ?pspline3tangent@alglib_impl@@YAXPEAUpspline3interpolant@1@NPEAN11PEAUae_state@1@@Z
	 ?rbfalloc@alglib_impl@@YAXPEAUae_serializer@1@PEAUrbfmodel@1@PEAUae_state@1@@Z
	 ?rbfbuildmodel@alglib@@YAXAEBVrbfmodel@1@AEAVrbfreport@1@@Z
	 ?rbfbuildmodel@alglib_impl@@YAXPEAUrbfmodel@1@PEAUrbfreport@1@PEAUae_state@1@@Z
	 ?rbfcalc@alglib@@YAXAEBVrbfmodel@1@AEBVreal_1d_array@1@AEAV31@@Z
	 ?rbfcalc@alglib_impl@@YAXPEAUrbfmodel@1@PEAUae_vector@1@1PEAUae_state@1@@Z
	 ?rbfcalc2@alglib@@YANAEBVrbfmodel@1@NN@Z
	 ?rbfcalc2@alglib_impl@@YANPEAUrbfmodel@1@NNPEAUae_state@1@@Z
	 ?rbfcalc3@alglib@@YANAEBVrbfmodel@1@NNN@Z
	 ?rbfcalc3@alglib_impl@@YANPEAUrbfmodel@1@NNNPEAUae_state@1@@Z
	 ?rbfcalcbuf@alglib@@YAXAEBVrbfmodel@1@AEBVreal_1d_array@1@AEAV31@@Z
	 ?rbfcalcbuf@alglib_impl@@YAXPEAUrbfmodel@1@PEAUae_vector@1@1PEAUae_state@1@@Z
	 ?rbfcreate@alglib@@YAX_J0AEAVrbfmodel@1@@Z
	 ?rbfcreate@alglib_impl@@YAX_J0PEAUrbfmodel@1@PEAUae_state@1@@Z
	 ?rbfgridcalc2@alglib@@YAXAEBVrbfmodel@1@AEBVreal_1d_array@1@_J12AEAVreal_2d_array@1@@Z
	 ?rbfgridcalc2@alglib_impl@@YAXPEAUrbfmodel@1@PEAUae_vector@1@_J12PEAUae_matrix@1@PEAUae_state@1@@Z
	 ?rbfserialize@alglib@@YAXAEAVrbfmodel@1@AEAV?$basic_string@DU?$char_traits@D@std@@V?$allocator@D@2@@std@@@Z
	 ?rbfserialize@alglib_impl@@YAXPEAUae_serializer@1@PEAUrbfmodel@1@PEAUae_state@1@@Z
	 ?rbfsetalgomultilayer@alglib@@YAXAEBVrbfmodel@1@N_J@Z
	 ?rbfsetalgomultilayer@alglib@@YAXAEBVrbfmodel@1@N_JN@Z
	 ?rbfsetalgomultilayer@alglib_impl@@YAXPEAUrbfmodel@1@N_JNPEAUae_state@1@@Z
	 ?rbfsetalgoqnn@alglib@@YAXAEBVrbfmodel@1@@Z
	 ?rbfsetalgoqnn@alglib@@YAXAEBVrbfmodel@1@NN@Z
	 ?rbfsetalgoqnn@alglib_impl@@YAXPEAUrbfmodel@1@NNPEAUae_state@1@@Z
	 ?rbfsetcond@alglib_impl@@YAXPEAUrbfmodel@1@NN_JPEAUae_state@1@@Z
	 ?rbfsetconstterm@alglib@@YAXAEBVrbfmodel@1@@Z
	 ?rbfsetconstterm@alglib_impl@@YAXPEAUrbfmodel@1@PEAUae_state@1@@Z
	 ?rbfsetlinterm@alglib@@YAXAEBVrbfmodel@1@@Z
	 ?rbfsetlinterm@alglib_impl@@YAXPEAUrbfmodel@1@PEAUae_state@1@@Z
	 ?rbfsetpoints@alglib@@YAXAEBVrbfmodel@1@AEBVreal_2d_array@1@@Z
	 ?rbfsetpoints@alglib@@YAXAEBVrbfmodel@1@AEBVreal_2d_array@1@_J@Z
	 ?rbfsetpoints@alglib_impl@@YAXPEAUrbfmodel@1@PEAUae_matrix@1@_JPEAUae_state@1@@Z
	 ?rbfsetzeroterm@alglib@@YAXAEBVrbfmodel@1@@Z
	 ?rbfsetzeroterm@alglib_impl@@YAXPEAUrbfmodel@1@PEAUae_state@1@@Z
	 ?rbfunpack@alglib@@YAXAEBVrbfmodel@1@AEA_J1AEAVreal_2d_array@1@12@Z
	 ?rbfunpack@alglib_impl@@YAXPEAUrbfmodel@1@PEA_J1PEAUae_matrix@1@12PEAUae_state@1@@Z
	 ?rbfunserialize@alglib@@YAXAEAV?$basic_string@DU?$char_traits@D@std@@V?$allocator@D@2@@std@@AEAVrbfmodel@1@@Z
	 ?rbfunserialize@alglib_impl@@YAXPEAUae_serializer@1@PEAUrbfmodel@1@PEAUae_state@1@@Z
	 ?smp_barycentricfitfloaterhormann@alglib@@YAXAEBVreal_1d_array@1@0_J1AEA_JAEAVbarycentricinterpolant@1@AEAVbarycentricfitreport@1@@Z
	 ?smp_barycentricfitfloaterhormannwc@alglib@@YAXAEBVreal_1d_array@1@00_J00AEBVinteger_1d_array@1@11AEA_JAEAVbarycentricinterpolant@1@AEAVbarycentricfitreport@1@@Z
	 ?smp_lsfitlinear@alglib@@YAXAEBVreal_1d_array@1@AEBVreal_2d_array@1@_J2AEA_JAEAV21@AEAVlsfitreport@1@@Z
	 ?smp_lsfitlinear@alglib@@YAXAEBVreal_1d_array@1@AEBVreal_2d_array@1@AEA_JAEAV21@AEAVlsfitreport@1@@Z
	 ?smp_lsfitlinearc@alglib@@YAXAEBVreal_1d_array@1@AEBVreal_2d_array@1@1_J22AEA_JAEAV21@AEAVlsfitreport@1@@Z
	 ?smp_lsfitlinearc@alglib@@YAXAEBVreal_1d_array@1@AEBVreal_2d_array@1@1AEA_JAEAV21@AEAVlsfitreport@1@@Z
	 ?smp_lsfitlinearw@alglib@@YAXAEBVreal_1d_array@1@0AEBVreal_2d_array@1@_J2AEA_JAEAV21@AEAVlsfitreport@1@@Z
	 ?smp_lsfitlinearw@alglib@@YAXAEBVreal_1d_array@1@0AEBVreal_2d_array@1@AEA_JAEAV21@AEAVlsfitreport@1@@Z
	 ?smp_lsfitlinearwc@alglib@@YAXAEBVreal_1d_array@1@0AEBVreal_2d_array@1@1_J22AEA_JAEAV21@AEAVlsfitreport@1@@Z
	 ?smp_lsfitlinearwc@alglib@@YAXAEBVreal_1d_array@1@0AEBVreal_2d_array@1@1AEA_JAEAV21@AEAVlsfitreport@1@@Z
	 ?smp_polynomialfit@alglib@@YAXAEBVreal_1d_array@1@0_J1AEA_JAEAVbarycentricinterpolant@1@AEAVpolynomialfitreport@1@@Z
	 ?smp_polynomialfit@alglib@@YAXAEBVreal_1d_array@1@0_JAEA_JAEAVbarycentricinterpolant@1@AEAVpolynomialfitreport@1@@Z
	 ?smp_polynomialfitwc@alglib@@YAXAEBVreal_1d_array@1@00_J00AEBVinteger_1d_array@1@11AEA_JAEAVbarycentricinterpolant@1@AEAVpolynomialfitreport@1@@Z
	 ?smp_polynomialfitwc@alglib@@YAXAEBVreal_1d_array@1@0000AEBVinteger_1d_array@1@_JAEA_JAEAVbarycentricinterpolant@1@AEAVpolynomialfitreport@1@@Z
	 ?smp_spline1dfitcubic@alglib@@YAXAEBVreal_1d_array@1@0_J1AEA_JAEAVspline1dinterpolant@1@AEAVspline1dfitreport@1@@Z
	 ?smp_spline1dfitcubic@alglib@@YAXAEBVreal_1d_array@1@0_JAEA_JAEAVspline1dinterpolant@1@AEAVspline1dfitreport@1@@Z
	 ?smp_spline1dfitcubicwc@alglib@@YAXAEBVreal_1d_array@1@00_J00AEBVinteger_1d_array@1@11AEA_JAEAVspline1dinterpolant@1@AEAVspline1dfitreport@1@@Z
	 ?smp_spline1dfitcubicwc@alglib@@YAXAEBVreal_1d_array@1@0000AEBVinteger_1d_array@1@_JAEA_JAEAVspline1dinterpolant@1@AEAVspline1dfitreport@1@@Z
	 ?smp_spline1dfithermite@alglib@@YAXAEBVreal_1d_array@1@0_J1AEA_JAEAVspline1dinterpolant@1@AEAVspline1dfitreport@1@@Z
	 ?smp_spline1dfithermite@alglib@@YAXAEBVreal_1d_array@1@0_JAEA_JAEAVspline1dinterpolant@1@AEAVspline1dfitreport@1@@Z
	 ?smp_spline1dfithermitewc@alglib@@YAXAEBVreal_1d_array@1@00_J00AEBVinteger_1d_array@1@11AEA_JAEAVspline1dinterpolant@1@AEAVspline1dfitreport@1@@Z
	 ?smp_spline1dfithermitewc@alglib@@YAXAEBVreal_1d_array@1@0000AEBVinteger_1d_array@1@_JAEA_JAEAVspline1dinterpolant@1@AEAVspline1dfitreport@1@@Z
	 ?smp_spline1dfitpenalized@alglib@@YAXAEBVreal_1d_array@1@0_J1NAEA_JAEAVspline1dinterpolant@1@AEAVspline1dfitreport@1@@Z
	 ?smp_spline1dfitpenalized@alglib@@YAXAEBVreal_1d_array@1@0_JNAEA_JAEAVspline1dinterpolant@1@AEAVspline1dfitreport@1@@Z
	 ?smp_spline1dfitpenalizedw@alglib@@YAXAEBVreal_1d_array@1@00_J1NAEA_JAEAVspline1dinterpolant@1@AEAVspline1dfitreport@1@@Z
	 ?smp_spline1dfitpenalizedw@alglib@@YAXAEBVreal_1d_array@1@00_JNAEA_JAEAVspline1dinterpolant@1@AEAVspline1dfitreport@1@@Z
	 ?solvecubicpolinom@alglib_impl@@YAXNNNNNNPEAN0000PEA_J1PEAUae_vector@1@PEAUae_state@1@@Z
	 ?solvepolinom2@alglib_impl@@YAXNNNNPEAN0PEA_JPEAUae_state@1@@Z
	 ?spline1dbuildakima@alglib@@YAXAEBVreal_1d_array@1@0_JAEAVspline1dinterpolant@1@@Z
	 ?spline1dbuildakima@alglib@@YAXAEBVreal_1d_array@1@0AEAVspline1dinterpolant@1@@Z
	 ?spline1dbuildakima@alglib_impl@@YAXPEAUae_vector@1@0_JPEAUspline1dinterpolant@1@PEAUae_state@1@@Z
	 ?spline1dbuildcatmullrom@alglib@@YAXAEBVreal_1d_array@1@0_J1NAEAVspline1dinterpolant@1@@Z
	 ?spline1dbuildcatmullrom@alglib@@YAXAEBVreal_1d_array@1@0AEAVspline1dinterpolant@1@@Z
	 ?spline1dbuildcatmullrom@alglib_impl@@YAXPEAUae_vector@1@0_J1NPEAUspline1dinterpolant@1@PEAUae_state@1@@Z
	 ?spline1dbuildcubic@alglib@@YAXAEBVreal_1d_array@1@0_J1N1NAEAVspline1dinterpolant@1@@Z
	 ?spline1dbuildcubic@alglib@@YAXAEBVreal_1d_array@1@0AEAVspline1dinterpolant@1@@Z
	 ?spline1dbuildcubic@alglib_impl@@YAXPEAUae_vector@1@0_J1N1NPEAUspline1dinterpolant@1@PEAUae_state@1@@Z
	 ?spline1dbuildhermite@alglib@@YAXAEBVreal_1d_array@1@00_JAEAVspline1dinterpolant@1@@Z
	 ?spline1dbuildhermite@alglib@@YAXAEBVreal_1d_array@1@00AEAVspline1dinterpolant@1@@Z
	 ?spline1dbuildhermite@alglib_impl@@YAXPEAUae_vector@1@00_JPEAUspline1dinterpolant@1@PEAUae_state@1@@Z
	 ?spline1dbuildlinear@alglib@@YAXAEBVreal_1d_array@1@0_JAEAVspline1dinterpolant@1@@Z
	 ?spline1dbuildlinear@alglib@@YAXAEBVreal_1d_array@1@0AEAVspline1dinterpolant@1@@Z
	 ?spline1dbuildlinear@alglib_impl@@YAXPEAUae_vector@1@0_JPEAUspline1dinterpolant@1@PEAUae_state@1@@Z
	 ?spline1dbuildmonotone@alglib@@YAXAEBVreal_1d_array@1@0_JAEAVspline1dinterpolant@1@@Z
	 ?spline1dbuildmonotone@alglib@@YAXAEBVreal_1d_array@1@0AEAVspline1dinterpolant@1@@Z
	 ?spline1dbuildmonotone@alglib_impl@@YAXPEAUae_vector@1@0_JPEAUspline1dinterpolant@1@PEAUae_state@1@@Z
	 ?spline1dcalc@alglib@@YANAEBVspline1dinterpolant@1@N@Z
	 ?spline1dcalc@alglib_impl@@YANPEAUspline1dinterpolant@1@NPEAUae_state@1@@Z
	 ?spline1dconvcubic@alglib@@YAXAEBVreal_1d_array@1@0_J1N1N01AEAV21@@Z
	 ?spline1dconvcubic@alglib@@YAXAEBVreal_1d_array@1@00AEAV21@@Z
	 ?spline1dconvcubic@alglib_impl@@YAXPEAUae_vector@1@0_J1N1N010PEAUae_state@1@@Z
	 ?spline1dconvdiff2cubic@alglib@@YAXAEBVreal_1d_array@1@0_J1N1N01AEAV21@22@Z
	 ?spline1dconvdiff2cubic@alglib@@YAXAEBVreal_1d_array@1@00AEAV21@11@Z
	 ?spline1dconvdiff2cubic@alglib_impl@@YAXPEAUae_vector@1@0_J1N1N01000PEAUae_state@1@@Z
	 ?spline1dconvdiffcubic@alglib@@YAXAEBVreal_1d_array@1@0_J1N1N01AEAV21@2@Z
	 ?spline1dconvdiffcubic@alglib@@YAXAEBVreal_1d_array@1@00AEAV21@1@Z
	 ?spline1dconvdiffcubic@alglib_impl@@YAXPEAUae_vector@1@0_J1N1N0100PEAUae_state@1@@Z
	 ?spline1dconvdiffinternal@alglib_impl@@YAXPEAUae_vector@1@00_J010_N0202PEAUae_state@1@@Z
	 ?spline1dcopy@alglib_impl@@YAXPEAUspline1dinterpolant@1@0PEAUae_state@1@@Z
	 ?spline1ddiff@alglib@@YAXAEBVspline1dinterpolant@1@NAEAN11@Z
	 ?spline1ddiff@alglib_impl@@YAXPEAUspline1dinterpolant@1@NPEAN11PEAUae_state@1@@Z
	 ?spline1dfitcubic@alglib@@YAXAEBVreal_1d_array@1@0_J1AEA_JAEAVspline1dinterpolant@1@AEAVspline1dfitreport@1@@Z
	 ?spline1dfitcubic@alglib@@YAXAEBVreal_1d_array@1@0_JAEA_JAEAVspline1dinterpolant@1@AEAVspline1dfitreport@1@@Z
	 ?spline1dfitcubic@alglib_impl@@YAXPEAUae_vector@1@0_J1PEA_JPEAUspline1dinterpolant@1@PEAUspline1dfitreport@1@PEAUae_state@1@@Z
	 ?spline1dfitcubicwc@alglib@@YAXAEBVreal_1d_array@1@00_J00AEBVinteger_1d_array@1@11AEA_JAEAVspline1dinterpolant@1@AEAVspline1dfitreport@1@@Z
	 ?spline1dfitcubicwc@alglib@@YAXAEBVreal_1d_array@1@0000AEBVinteger_1d_array@1@_JAEA_JAEAVspline1dinterpolant@1@AEAVspline1dfitreport@1@@Z
	 ?spline1dfitcubicwc@alglib_impl@@YAXPEAUae_vector@1@00_J00011PEA_JPEAUspline1dinterpolant@1@PEAUspline1dfitreport@1@PEAUae_state@1@@Z
	 ?spline1dfithermite@alglib@@YAXAEBVreal_1d_array@1@0_J1AEA_JAEAVspline1dinterpolant@1@AEAVspline1dfitreport@1@@Z
	 ?spline1dfithermite@alglib@@YAXAEBVreal_1d_array@1@0_JAEA_JAEAVspline1dinterpolant@1@AEAVspline1dfitreport@1@@Z
	 ?spline1dfithermite@alglib_impl@@YAXPEAUae_vector@1@0_J1PEA_JPEAUspline1dinterpolant@1@PEAUspline1dfitreport@1@PEAUae_state@1@@Z
	 ?spline1dfithermitewc@alglib@@YAXAEBVreal_1d_array@1@00_J00AEBVinteger_1d_array@1@11AEA_JAEAVspline1dinterpolant@1@AEAVspline1dfitreport@1@@Z
	 ?spline1dfithermitewc@alglib@@YAXAEBVreal_1d_array@1@0000AEBVinteger_1d_array@1@_JAEA_JAEAVspline1dinterpolant@1@AEAVspline1dfitreport@1@@Z
	 ?spline1dfithermitewc@alglib_impl@@YAXPEAUae_vector@1@00_J00011PEA_JPEAUspline1dinterpolant@1@PEAUspline1dfitreport@1@PEAUae_state@1@@Z
	 ?spline1dfitpenalized@alglib@@YAXAEBVreal_1d_array@1@0_J1NAEA_JAEAVspline1dinterpolant@1@AEAVspline1dfitreport@1@@Z
	 ?spline1dfitpenalized@alglib@@YAXAEBVreal_1d_array@1@0_JNAEA_JAEAVspline1dinterpolant@1@AEAVspline1dfitreport@1@@Z
	 ?spline1dfitpenalized@alglib_impl@@YAXPEAUae_vector@1@0_J1NPEA_JPEAUspline1dinterpolant@1@PEAUspline1dfitreport@1@PEAUae_state@1@@Z
	 ?spline1dfitpenalizedw@alglib@@YAXAEBVreal_1d_array@1@00_J1NAEA_JAEAVspline1dinterpolant@1@AEAVspline1dfitreport@1@@Z
	 ?spline1dfitpenalizedw@alglib@@YAXAEBVreal_1d_array@1@00_JNAEA_JAEAVspline1dinterpolant@1@AEAVspline1dfitreport@1@@Z
	 ?spline1dfitpenalizedw@alglib_impl@@YAXPEAUae_vector@1@00_J1NPEA_JPEAUspline1dinterpolant@1@PEAUspline1dfitreport@1@PEAUae_state@1@@Z
	 ?spline1dgriddiff2cubic@alglib@@YAXAEBVreal_1d_array@1@0_J1N1NAEAV21@2@Z
	 ?spline1dgriddiff2cubic@alglib@@YAXAEBVreal_1d_array@1@0AEAV21@1@Z
	 ?spline1dgriddiff2cubic@alglib_impl@@YAXPEAUae_vector@1@0_J1N1N00PEAUae_state@1@@Z
	 ?spline1dgriddiffcubic@alglib@@YAXAEBVreal_1d_array@1@0_J1N1NAEAV21@@Z
	 ?spline1dgriddiffcubic@alglib@@YAXAEBVreal_1d_array@1@0AEAV21@@Z
	 ?spline1dgriddiffcubic@alglib_impl@@YAXPEAUae_vector@1@0_J1N1N0PEAUae_state@1@@Z
	 ?spline1dintegrate@alglib@@YANAEBVspline1dinterpolant@1@N@Z
	 ?spline1dintegrate@alglib_impl@@YANPEAUspline1dinterpolant@1@NPEAUae_state@1@@Z
	 ?spline1dlintransx@alglib@@YAXAEBVspline1dinterpolant@1@NN@Z
	 ?spline1dlintransx@alglib_impl@@YAXPEAUspline1dinterpolant@1@NNPEAUae_state@1@@Z
	 ?spline1dlintransy@alglib@@YAXAEBVspline1dinterpolant@1@NN@Z
	 ?spline1dlintransy@alglib_impl@@YAXPEAUspline1dinterpolant@1@NNPEAUae_state@1@@Z
	 ?spline1drootsandextrema@alglib_impl@@YAXPEAUspline1dinterpolant@1@PEAUae_vector@1@PEA_JPEA_N1123PEAUae_state@1@@Z
	 ?spline1dunpack@alglib@@YAXAEBVspline1dinterpolant@1@AEA_JAEAVreal_2d_array@1@@Z
	 ?spline1dunpack@alglib_impl@@YAXPEAUspline1dinterpolant@1@PEA_JPEAUae_matrix@1@PEAUae_state@1@@Z
	 ?spline2dbuildbicubic@alglib@@YAXAEBVreal_1d_array@1@0AEBVreal_2d_array@1@_J2AEAVspline2dinterpolant@1@@Z
	 ?spline2dbuildbicubic@alglib_impl@@YAXPEAUae_vector@1@0PEAUae_matrix@1@_J2PEAUspline2dinterpolant@1@PEAUae_state@1@@Z
	 ?spline2dbuildbicubicv@alglib@@YAXAEBVreal_1d_array@1@_J0101AEAVspline2dinterpolant@1@@Z
	 ?spline2dbuildbicubicv@alglib_impl@@YAXPEAUae_vector@1@_J0101PEAUspline2dinterpolant@1@PEAUae_state@1@@Z
	 ?spline2dbuildbilinear@alglib@@YAXAEBVreal_1d_array@1@0AEBVreal_2d_array@1@_J2AEAVspline2dinterpolant@1@@Z
	 ?spline2dbuildbilinear@alglib_impl@@YAXPEAUae_vector@1@0PEAUae_matrix@1@_J2PEAUspline2dinterpolant@1@PEAUae_state@1@@Z
	 ?spline2dbuildbilinearv@alglib@@YAXAEBVreal_1d_array@1@_J0101AEAVspline2dinterpolant@1@@Z
	 ?spline2dbuildbilinearv@alglib_impl@@YAXPEAUae_vector@1@_J0101PEAUspline2dinterpolant@1@PEAUae_state@1@@Z
	 ?spline2dcalc@alglib@@YANAEBVspline2dinterpolant@1@NN@Z
	 ?spline2dcalc@alglib_impl@@YANPEAUspline2dinterpolant@1@NNPEAUae_state@1@@Z
	 ?spline2dcalcv@alglib@@YAXAEBVspline2dinterpolant@1@NNAEAVreal_1d_array@1@@Z
	 ?spline2dcalcv@alglib_impl@@YAXPEAUspline2dinterpolant@1@NNPEAUae_vector@1@PEAUae_state@1@@Z
	 ?spline2dcalcvbuf@alglib@@YAXAEBVspline2dinterpolant@1@NNAEAVreal_1d_array@1@@Z
	 ?spline2dcalcvbuf@alglib_impl@@YAXPEAUspline2dinterpolant@1@NNPEAUae_vector@1@PEAUae_state@1@@Z
	 ?spline2dcopy@alglib@@YAXAEBVspline2dinterpolant@1@AEAV21@@Z
	 ?spline2dcopy@alglib_impl@@YAXPEAUspline2dinterpolant@1@0PEAUae_state@1@@Z
	 ?spline2ddiff@alglib@@YAXAEBVspline2dinterpolant@1@NNAEAN111@Z
	 ?spline2ddiff@alglib_impl@@YAXPEAUspline2dinterpolant@1@NNPEAN111PEAUae_state@1@@Z
	 ?spline2dlintransf@alglib@@YAXAEBVspline2dinterpolant@1@NN@Z
	 ?spline2dlintransf@alglib_impl@@YAXPEAUspline2dinterpolant@1@NNPEAUae_state@1@@Z
	 ?spline2dlintransxy@alglib@@YAXAEBVspline2dinterpolant@1@NNNN@Z
	 ?spline2dlintransxy@alglib_impl@@YAXPEAUspline2dinterpolant@1@NNNNPEAUae_state@1@@Z
	 ?spline2dresamplebicubic@alglib@@YAXAEBVreal_2d_array@1@_J1AEAV21@11@Z
	 ?spline2dresamplebicubic@alglib_impl@@YAXPEAUae_matrix@1@_J1011PEAUae_state@1@@Z
	 ?spline2dresamplebilinear@alglib@@YAXAEBVreal_2d_array@1@_J1AEAV21@11@Z
	 ?spline2dresamplebilinear@alglib_impl@@YAXPEAUae_matrix@1@_J1011PEAUae_state@1@@Z
	 ?spline2dunpack@alglib@@YAXAEBVspline2dinterpolant@1@AEA_J1AEAVreal_2d_array@1@@Z
	 ?spline2dunpack@alglib_impl@@YAXPEAUspline2dinterpolant@1@PEA_J1PEAUae_matrix@1@PEAUae_state@1@@Z
	 ?spline2dunpackv@alglib@@YAXAEBVspline2dinterpolant@1@AEA_J11AEAVreal_2d_array@1@@Z
	 ?spline2dunpackv@alglib_impl@@YAXPEAUspline2dinterpolant@1@PEA_J11PEAUae_matrix@1@PEAUae_state@1@@Z
	 ?spline3dbuildtrilinearv@alglib@@YAXAEBVreal_1d_array@1@_J010101AEAVspline3dinterpolant@1@@Z
	 ?spline3dbuildtrilinearv@alglib_impl@@YAXPEAUae_vector@1@_J010101PEAUspline3dinterpolant@1@PEAUae_state@1@@Z
	 ?spline3dcalc@alglib@@YANAEBVspline3dinterpolant@1@NNN@Z
	 ?spline3dcalc@alglib_impl@@YANPEAUspline3dinterpolant@1@NNNPEAUae_state@1@@Z
	 ?spline3dcalcv@alglib@@YAXAEBVspline3dinterpolant@1@NNNAEAVreal_1d_array@1@@Z
	 ?spline3dcalcv@alglib_impl@@YAXPEAUspline3dinterpolant@1@NNNPEAUae_vector@1@PEAUae_state@1@@Z
	 ?spline3dcalcvbuf@alglib@@YAXAEBVspline3dinterpolant@1@NNNAEAVreal_1d_array@1@@Z
	 ?spline3dcalcvbuf@alglib_impl@@YAXPEAUspline3dinterpolant@1@NNNPEAUae_vector@1@PEAUae_state@1@@Z
	 ?spline3dcopy@alglib_impl@@YAXPEAUspline3dinterpolant@1@0PEAUae_state@1@@Z
	 ?spline3dlintransf@alglib@@YAXAEBVspline3dinterpolant@1@NN@Z
	 ?spline3dlintransf@alglib_impl@@YAXPEAUspline3dinterpolant@1@NNPEAUae_state@1@@Z
	 ?spline3dlintransxyz@alglib@@YAXAEBVspline3dinterpolant@1@NNNNNN@Z
	 ?spline3dlintransxyz@alglib_impl@@YAXPEAUspline3dinterpolant@1@NNNNNNPEAUae_state@1@@Z
	 ?spline3dresampletrilinear@alglib@@YAXAEBVreal_1d_array@1@_J11111AEAV21@@Z
	 ?spline3dresampletrilinear@alglib_impl@@YAXPEAUae_vector@1@_J111110PEAUae_state@1@@Z
	 ?spline3dunpackv@alglib@@YAXAEBVspline3dinterpolant@1@AEA_J1111AEAVreal_2d_array@1@@Z
	 ?spline3dunpackv@alglib_impl@@YAXPEAUspline3dinterpolant@1@PEA_J1111PEAUae_matrix@1@PEAUae_state@1@@Z
	 ??_7_matinvreport_owner@alglib@@6B@
	 ??_7_normestimatorstate_owner@alglib@@6B@
	 ??_7_sparsebuffers_owner@alglib@@6B@
	 ??_7_sparsematrix_owner@alglib@@6B@
	 ??_7matinvreport@alglib@@6B@
	 ??_7normestimatorstate@alglib@@6B@
	 ??_7sparsebuffers@alglib@@6B@
	 ??_7sparsematrix@alglib@@6B@
	 ??_R0?AV_matinvreport_owner@alglib@@@8
	 ??_R0?AV_normestimatorstate_owner@alglib@@@8
	 ??_R0?AV_sparsebuffers_owner@alglib@@@8
	 ??_R0?AV_sparsematrix_owner@alglib@@@8
	 ??_R0?AVmatinvreport@alglib@@@8
	 ??_R0?AVnormestimatorstate@alglib@@@8
	 ??_R0?AVsparsebuffers@alglib@@@8
	 ??_R0?AVsparsematrix@alglib@@@8
	 ??_R1A@?0A@EA@_matinvreport_owner@alglib@@8
	 ??_R1A@?0A@EA@_normestimatorstate_owner@alglib@@8
	 ??_R1A@?0A@EA@_sparsebuffers_owner@alglib@@8
	 ??_R1A@?0A@EA@_sparsematrix_owner@alglib@@8
	 ??_R1A@?0A@EA@matinvreport@alglib@@8
	 ??_R1A@?0A@EA@normestimatorstate@alglib@@8
	 ??_R1A@?0A@EA@sparsebuffers@alglib@@8
	 ??_R1A@?0A@EA@sparsematrix@alglib@@8
	 ??_R2_matinvreport_owner@alglib@@8
	 ??_R2_normestimatorstate_owner@alglib@@8
	 ??_R2_sparsebuffers_owner@alglib@@8
	 ??_R2_sparsematrix_owner@alglib@@8
	 ??_R2matinvreport@alglib@@8
	 ??_R2normestimatorstate@alglib@@8
	 ??_R2sparsebuffers@alglib@@8
	 ??_R2sparsematrix@alglib@@8
	 ??_R3_matinvreport_owner@alglib@@8
	 ??_R3_normestimatorstate_owner@alglib@@8
	 ??_R3_sparsebuffers_owner@alglib@@8
	 ??_R3_sparsematrix_owner@alglib@@8
	 ??_R3matinvreport@alglib@@8
	 ??_R3normestimatorstate@alglib@@8
	 ??_R3sparsebuffers@alglib@@8
	 ??_R3sparsematrix@alglib@@8
	 ??_R4_matinvreport_owner@alglib@@6B@
	 ??_R4_normestimatorstate_owner@alglib@@6B@
	 ??_R4_sparsebuffers_owner@alglib@@6B@
	 ??_R4_sparsematrix_owner@alglib@@6B@
	 ??_R4matinvreport@alglib@@6B@
	 ??_R4normestimatorstate@alglib@@6B@
	 ??_R4sparsebuffers@alglib@@6B@
	 ??_R4sparsematrix@alglib@@6B@
	 ??0_matinvreport_owner@alglib@@QEAA@AEBV01@@Z
	 ??0_matinvreport_owner@alglib@@QEAA@XZ
	 ??0_normestimatorstate_owner@alglib@@QEAA@AEBV01@@Z
	 ??0_normestimatorstate_owner@alglib@@QEAA@XZ
	 ??0_sparsebuffers_owner@alglib@@QEAA@AEBV01@@Z
	 ??0_sparsebuffers_owner@alglib@@QEAA@XZ
	 ??0_sparsematrix_owner@alglib@@QEAA@AEBV01@@Z
	 ??0_sparsematrix_owner@alglib@@QEAA@XZ
	 ??0ap_error@alglib@@QEAA@AEBV01@@Z
	 ??0matinvreport@alglib@@QEAA@AEBV01@@Z
	 ??0matinvreport@alglib@@QEAA@XZ
	 ??0normestimatorstate@alglib@@QEAA@AEBV01@@Z
	 ??0normestimatorstate@alglib@@QEAA@XZ
	 ??0sparsebuffers@alglib@@QEAA@AEBV01@@Z
	 ??0sparsebuffers@alglib@@QEAA@XZ
	 ??0sparsematrix@alglib@@QEAA@AEBV01@@Z
	 ??0sparsematrix@alglib@@QEAA@XZ
	 ??1_matinvreport_owner@alglib@@UEAA@XZ
	 ??1_normestimatorstate_owner@alglib@@UEAA@XZ
	 ??1_sparsebuffers_owner@alglib@@UEAA@XZ
	 ??1_sparsematrix_owner@alglib@@UEAA@XZ
	 ??1ap_error@alglib@@QEAA@XZ
	 ??1matinvreport@alglib@@UEAA@XZ
	 ??1normestimatorstate@alglib@@UEAA@XZ
	 ??1sparsebuffers@alglib@@UEAA@XZ
	 ??1sparsematrix@alglib@@UEAA@XZ
	 ??4_matinvreport_owner@alglib@@QEAAAEAV01@AEBV01@@Z
	 ??4_normestimatorstate_owner@alglib@@QEAAAEAV01@AEBV01@@Z
	 ??4_sparsebuffers_owner@alglib@@QEAAAEAV01@AEBV01@@Z
	 ??4_sparsematrix_owner@alglib@@QEAAAEAV01@AEBV01@@Z
	 ??4matinvreport@alglib@@QEAAAEAV01@AEBV01@@Z
	 ??4normestimatorstate@alglib@@QEAAAEAV01@AEBV01@@Z
	 ??4sparsebuffers@alglib@@QEAAAEAV01@AEBV01@@Z
	 ??4sparsematrix@alglib@@QEAAAEAV01@AEBV01@@Z
	 ?_fblslincgstate_clear@alglib_impl@@YAXPEAX@Z
	 ?_fblslincgstate_destroy@alglib_impl@@YAXPEAX@Z
	 ?_fblslincgstate_init@alglib_impl@@YAXPEAXPEAUae_state@1@@Z
	 ?_fblslincgstate_init_copy@alglib_impl@@YAXPEAX0PEAUae_state@1@@Z
	 ?_matinvreport_clear@alglib_impl@@YAXPEAX@Z
	 ?_matinvreport_destroy@alglib_impl@@YAXPEAX@Z
	 ?_matinvreport_init@alglib_impl@@YAXPEAXPEAUae_state@1@@Z
	 ?_matinvreport_init_copy@alglib_impl@@YAXPEAX0PEAUae_state@1@@Z
	 ?_normestimatorstate_clear@alglib_impl@@YAXPEAX@Z
	 ?_normestimatorstate_destroy@alglib_impl@@YAXPEAX@Z
	 ?_normestimatorstate_init@alglib_impl@@YAXPEAXPEAUae_state@1@@Z
	 ?_normestimatorstate_init_copy@alglib_impl@@YAXPEAX0PEAUae_state@1@@Z
	 ?_pexec_cmatrixgemm@alglib_impl@@YAX_J00Uae_complex@1@PEAUae_matrix@1@00020001200PEAUae_state@1@@Z
	 ?_pexec_cmatrixherk@alglib_impl@@YAX_J0NPEAUae_matrix@1@000N100_NPEAUae_state@1@@Z
	 ?_pexec_cmatrixinverse@alglib_impl@@YAXPEAUae_matrix@1@_JPEA_JPEAUmatinvreport@1@PEAUae_state@1@@Z
	 ?_pexec_cmatrixlefttrsm@alglib_impl@@YAX_J0PEAUae_matrix@1@00_N20100PEAUae_state@1@@Z
	 ?_pexec_cmatrixlq@alglib_impl@@YAXPEAUae_matrix@1@_J1PEAUae_vector@1@PEAUae_state@1@@Z
	 ?_pexec_cmatrixlqunpackq@alglib_impl@@YAXPEAUae_matrix@1@_J1PEAUae_vector@1@10PEAUae_state@1@@Z
	 ?_pexec_cmatrixlu@alglib_impl@@YAXPEAUae_matrix@1@_J1PEAUae_vector@1@PEAUae_state@1@@Z
	 ?_pexec_cmatrixluinverse@alglib_impl@@YAXPEAUae_matrix@1@PEAUae_vector@1@_JPEA_JPEAUmatinvreport@1@PEAUae_state@1@@Z
	 ?_pexec_cmatrixqr@alglib_impl@@YAXPEAUae_matrix@1@_J1PEAUae_vector@1@PEAUae_state@1@@Z
	 ?_pexec_cmatrixqrunpackq@alglib_impl@@YAXPEAUae_matrix@1@_J1PEAUae_vector@1@10PEAUae_state@1@@Z
	 ?_pexec_cmatrixrighttrsm@alglib_impl@@YAX_J0PEAUae_matrix@1@00_N20100PEAUae_state@1@@Z
	 ?_pexec_cmatrixsyrk@alglib_impl@@YAX_J0NPEAUae_matrix@1@000N100_NPEAUae_state@1@@Z
	 ?_pexec_cmatrixtrinverse@alglib_impl@@YAXPEAUae_matrix@1@_J_N2PEA_JPEAUmatinvreport@1@PEAUae_state@1@@Z
	 ?_pexec_hpdmatrixcholesky@alglib_impl@@YA_NPEAUae_matrix@1@_J_NPEAUae_state@1@@Z
	 ?_pexec_hpdmatrixcholeskyinverse@alglib_impl@@YAXPEAUae_matrix@1@_J_NPEA_JPEAUmatinvreport@1@PEAUae_state@1@@Z
	 ?_pexec_hpdmatrixinverse@alglib_impl@@YAXPEAUae_matrix@1@_J_NPEA_JPEAUmatinvreport@1@PEAUae_state@1@@Z
	 ?_pexec_rmatrixgemm@alglib_impl@@YAX_J00NPEAUae_matrix@1@0001000N100PEAUae_state@1@@Z
	 ?_pexec_rmatrixinverse@alglib_impl@@YAXPEAUae_matrix@1@_JPEA_JPEAUmatinvreport@1@PEAUae_state@1@@Z
	 ?_pexec_rmatrixlefttrsm@alglib_impl@@YAX_J0PEAUae_matrix@1@00_N20100PEAUae_state@1@@Z
	 ?_pexec_rmatrixlq@alglib_impl@@YAXPEAUae_matrix@1@_J1PEAUae_vector@1@PEAUae_state@1@@Z
	 ?_pexec_rmatrixlqunpackq@alglib_impl@@YAXPEAUae_matrix@1@_J1PEAUae_vector@1@10PEAUae_state@1@@Z
	 ?_pexec_rmatrixlu@alglib_impl@@YAXPEAUae_matrix@1@_J1PEAUae_vector@1@PEAUae_state@1@@Z
	 ?_pexec_rmatrixluinverse@alglib_impl@@YAXPEAUae_matrix@1@PEAUae_vector@1@_JPEA_JPEAUmatinvreport@1@PEAUae_state@1@@Z
	 ?_pexec_rmatrixqr@alglib_impl@@YAXPEAUae_matrix@1@_J1PEAUae_vector@1@PEAUae_state@1@@Z
	 ?_pexec_rmatrixqrunpackq@alglib_impl@@YAXPEAUae_matrix@1@_J1PEAUae_vector@1@10PEAUae_state@1@@Z
	 ?_pexec_rmatrixrighttrsm@alglib_impl@@YAX_J0PEAUae_matrix@1@00_N20100PEAUae_state@1@@Z
	 ?_pexec_rmatrixsvd@alglib_impl@@YA_NPEAUae_matrix@1@_J1111PEAUae_vector@1@00PEAUae_state@1@@Z
	 ?_pexec_rmatrixsyrk@alglib_impl@@YAX_J0NPEAUae_matrix@1@000N100_NPEAUae_state@1@@Z
	 ?_pexec_rmatrixtrinverse@alglib_impl@@YAXPEAUae_matrix@1@_J_N2PEA_JPEAUmatinvreport@1@PEAUae_state@1@@Z
	 ?_pexec_spdmatrixcholesky@alglib_impl@@YA_NPEAUae_matrix@1@_J_NPEAUae_state@1@@Z
	 ?_pexec_spdmatrixcholeskyinverse@alglib_impl@@YAXPEAUae_matrix@1@_J_NPEA_JPEAUmatinvreport@1@PEAUae_state@1@@Z
	 ?_pexec_spdmatrixinverse@alglib_impl@@YAXPEAUae_matrix@1@_J_NPEA_JPEAUmatinvreport@1@PEAUae_state@1@@Z
	 ?_sparsebuffers_clear@alglib_impl@@YAXPEAX@Z
	 ?_sparsebuffers_destroy@alglib_impl@@YAXPEAX@Z
	 ?_sparsebuffers_init@alglib_impl@@YAXPEAXPEAUae_state@1@@Z
	 ?_sparsebuffers_init_copy@alglib_impl@@YAXPEAX0PEAUae_state@1@@Z
	 ?_sparsematrix_clear@alglib_impl@@YAXPEAX@Z
	 ?_sparsematrix_destroy@alglib_impl@@YAXPEAX@Z
	 ?_sparsematrix_init@alglib_impl@@YAXPEAXPEAUae_state@1@@Z
	 ?_sparsematrix_init_copy@alglib_impl@@YAXPEAX0PEAUae_state@1@@Z
	 ?ablasblocksize@alglib_impl@@YA_JPEAUae_matrix@1@PEAUae_state@1@@Z
	 ?ablascomplexblocksize@alglib_impl@@YA_JPEAUae_matrix@1@PEAUae_state@1@@Z
	 ?ablascomplexsplitlength@alglib_impl@@YAXPEAUae_matrix@1@_JPEA_J2PEAUae_state@1@@Z
	 ?ablasmicroblocksize@alglib_impl@@YA_JPEAUae_state@1@@Z
	 ?ablassplitlength@alglib_impl@@YAXPEAUae_matrix@1@_JPEA_J2PEAUae_state@1@@Z
	 ?bidiagonalsvddecomposition@alglib_impl@@YA_NPEAUae_vector@1@0_J_N2PEAUae_matrix@1@13131PEAUae_state@1@@Z
	 ?c_ptr@_matinvreport_owner@alglib@@QEAAPEAUmatinvreport@alglib_impl@@XZ
	 ?c_ptr@_matinvreport_owner@alglib@@QEBAPEAUmatinvreport@alglib_impl@@XZ
	 ?c_ptr@_normestimatorstate_owner@alglib@@QEAAPEAUnormestimatorstate@alglib_impl@@XZ
	 ?c_ptr@_normestimatorstate_owner@alglib@@QEBAPEAUnormestimatorstate@alglib_impl@@XZ
	 ?c_ptr@_sparsebuffers_owner@alglib@@QEAAPEAUsparsebuffers@alglib_impl@@XZ
	 ?c_ptr@_sparsebuffers_owner@alglib@@QEBAPEAUsparsebuffers@alglib_impl@@XZ
	 ?c_ptr@_sparsematrix_owner@alglib@@QEAAPEAUsparsematrix@alglib_impl@@XZ
	 ?c_ptr@_sparsematrix_owner@alglib@@QEBAPEAUsparsematrix@alglib_impl@@XZ
	 ?cmatrixcopy@alglib@@YAX_J0AEBVcomplex_2d_array@1@00AEAV21@00@Z
	 ?cmatrixcopy@alglib_impl@@YAX_J0PEAUae_matrix@1@00100PEAUae_state@1@@Z
	 ?cmatrixdet@alglib@@YA?AVcomplex@1@AEBVcomplex_2d_array@1@@Z
	 ?cmatrixdet@alglib@@YA?AVcomplex@1@AEBVcomplex_2d_array@1@_J@Z
	 ?cmatrixdet@alglib_impl@@YA?AUae_complex@1@PEAUae_matrix@1@_JPEAUae_state@1@@Z
	 ?cmatrixgemm@alglib@@YAX_J00Vcomplex@1@AEBVcomplex_2d_array@1@00020001200@Z
	 ?cmatrixgemm@alglib_impl@@YAX_J00Uae_complex@1@PEAUae_matrix@1@00020001200PEAUae_state@1@@Z
	 ?cmatrixherk@alglib@@YAX_J0NAEBVcomplex_2d_array@1@000N100_N@Z
	 ?cmatrixherk@alglib_impl@@YAX_J0NPEAUae_matrix@1@000N100_NPEAUae_state@1@@Z
	 ?cmatrixinverse@alglib@@YAXAEAVcomplex_2d_array@1@_JAEA_JAEAVmatinvreport@1@@Z
	 ?cmatrixinverse@alglib@@YAXAEAVcomplex_2d_array@1@AEA_JAEAVmatinvreport@1@@Z
	 ?cmatrixinverse@alglib_impl@@YAXPEAUae_matrix@1@_JPEA_JPEAUmatinvreport@1@PEAUae_state@1@@Z
	 ?cmatrixlefttrsm@alglib@@YAX_J0AEBVcomplex_2d_array@1@00_N20100@Z
	 ?cmatrixlefttrsm@alglib_impl@@YAX_J0PEAUae_matrix@1@00_N20100PEAUae_state@1@@Z
	 ?cmatrixlq@alglib@@YAXAEAVcomplex_2d_array@1@_J1AEAVcomplex_1d_array@1@@Z
	 ?cmatrixlq@alglib_impl@@YAXPEAUae_matrix@1@_J1PEAUae_vector@1@PEAUae_state@1@@Z
	 ?cmatrixlqunpackl@alglib@@YAXAEBVcomplex_2d_array@1@_J1AEAV21@@Z
	 ?cmatrixlqunpackl@alglib_impl@@YAXPEAUae_matrix@1@_J10PEAUae_state@1@@Z
	 ?cmatrixlqunpackq@alglib@@YAXAEBVcomplex_2d_array@1@_J1AEBVcomplex_1d_array@1@1AEAV21@@Z
	 ?cmatrixlqunpackq@alglib_impl@@YAXPEAUae_matrix@1@_J1PEAUae_vector@1@10PEAUae_state@1@@Z
	 ?cmatrixlu@alglib@@YAXAEAVcomplex_2d_array@1@_J1AEAVinteger_1d_array@1@@Z
	 ?cmatrixlu@alglib_impl@@YAXPEAUae_matrix@1@_J1PEAUae_vector@1@PEAUae_state@1@@Z
	 ?cmatrixludet@alglib@@YA?AVcomplex@1@AEBVcomplex_2d_array@1@AEBVinteger_1d_array@1@@Z
	 ?cmatrixludet@alglib@@YA?AVcomplex@1@AEBVcomplex_2d_array@1@AEBVinteger_1d_array@1@_J@Z
	 ?cmatrixludet@alglib_impl@@YA?AUae_complex@1@PEAUae_matrix@1@PEAUae_vector@1@_JPEAUae_state@1@@Z
	 ?cmatrixluinverse@alglib@@YAXAEAVcomplex_2d_array@1@AEBVinteger_1d_array@1@_JAEA_JAEAVmatinvreport@1@@Z
	 ?cmatrixluinverse@alglib@@YAXAEAVcomplex_2d_array@1@AEBVinteger_1d_array@1@AEA_JAEAVmatinvreport@1@@Z
	 ?cmatrixluinverse@alglib_impl@@YAXPEAUae_matrix@1@PEAUae_vector@1@_JPEA_JPEAUmatinvreport@1@PEAUae_state@1@@Z
	 ?cmatrixlup@alglib_impl@@YAXPEAUae_matrix@1@_J1PEAUae_vector@1@PEAUae_state@1@@Z
	 ?cmatrixlurcond1@alglib@@YANAEBVcomplex_2d_array@1@_J@Z
	 ?cmatrixlurcond1@alglib_impl@@YANPEAUae_matrix@1@_JPEAUae_state@1@@Z
	 ?cmatrixlurcondinf@alglib@@YANAEBVcomplex_2d_array@1@_J@Z
	 ?cmatrixlurcondinf@alglib_impl@@YANPEAUae_matrix@1@_JPEAUae_state@1@@Z
	 ?cmatrixmv@alglib@@YAX_J0AEBVcomplex_2d_array@1@000AEBVcomplex_1d_array@1@0AEAV31@0@Z
	 ?cmatrixmv@alglib_impl@@YAX_J0PEAUae_matrix@1@000PEAUae_vector@1@020PEAUae_state@1@@Z
	 ?cmatrixplu@alglib_impl@@YAXPEAUae_matrix@1@_J1PEAUae_vector@1@PEAUae_state@1@@Z
	 ?cmatrixqr@alglib@@YAXAEAVcomplex_2d_array@1@_J1AEAVcomplex_1d_array@1@@Z
	 ?cmatrixqr@alglib_impl@@YAXPEAUae_matrix@1@_J1PEAUae_vector@1@PEAUae_state@1@@Z
	 ?cmatrixqrunpackq@alglib@@YAXAEBVcomplex_2d_array@1@_J1AEBVcomplex_1d_array@1@1AEAV21@@Z
	 ?cmatrixqrunpackq@alglib_impl@@YAXPEAUae_matrix@1@_J1PEAUae_vector@1@10PEAUae_state@1@@Z
	 ?cmatrixqrunpackr@alglib@@YAXAEBVcomplex_2d_array@1@_J1AEAV21@@Z
	 ?cmatrixqrunpackr@alglib_impl@@YAXPEAUae_matrix@1@_J10PEAUae_state@1@@Z
	 ?cmatrixrank1@alglib@@YAX_J0AEAVcomplex_2d_array@1@00AEAVcomplex_1d_array@1@020@Z
	 ?cmatrixrank1@alglib_impl@@YAX_J0PEAUae_matrix@1@00PEAUae_vector@1@020PEAUae_state@1@@Z
	 ?cmatrixrcond1@alglib@@YANAEBVcomplex_2d_array@1@_J@Z
	 ?cmatrixrcond1@alglib_impl@@YANPEAUae_matrix@1@_JPEAUae_state@1@@Z
	 ?cmatrixrcondinf@alglib@@YANAEBVcomplex_2d_array@1@_J@Z
	 ?cmatrixrcondinf@alglib_impl@@YANPEAUae_matrix@1@_JPEAUae_state@1@@Z
	 ?cmatrixrighttrsm@alglib@@YAX_J0AEBVcomplex_2d_array@1@00_N20100@Z
	 ?cmatrixrighttrsm@alglib_impl@@YAX_J0PEAUae_matrix@1@00_N20100PEAUae_state@1@@Z
	 ?cmatrixrndcond@alglib@@YAX_JNAEAVcomplex_2d_array@1@@Z
	 ?cmatrixrndcond@alglib_impl@@YAX_JNPEAUae_matrix@1@PEAUae_state@1@@Z
	 ?cmatrixrndorthogonal@alglib@@YAX_JAEAVcomplex_2d_array@1@@Z
	 ?cmatrixrndorthogonal@alglib_impl@@YAX_JPEAUae_matrix@1@PEAUae_state@1@@Z
	 ?cmatrixrndorthogonalfromtheleft@alglib@@YAXAEAVcomplex_2d_array@1@_J1@Z
	 ?cmatrixrndorthogonalfromtheleft@alglib_impl@@YAXPEAUae_matrix@1@_J1PEAUae_state@1@@Z
	 ?cmatrixrndorthogonalfromtheright@alglib@@YAXAEAVcomplex_2d_array@1@_J1@Z
	 ?cmatrixrndorthogonalfromtheright@alglib_impl@@YAXPEAUae_matrix@1@_J1PEAUae_state@1@@Z
	 ?cmatrixsyrk@alglib@@YAX_J0NAEBVcomplex_2d_array@1@000N100_N@Z
	 ?cmatrixsyrk@alglib_impl@@YAX_J0NPEAUae_matrix@1@000N100_NPEAUae_state@1@@Z
	 ?cmatrixtranspose@alglib@@YAX_J0AEBVcomplex_2d_array@1@00AEAV21@00@Z
	 ?cmatrixtranspose@alglib_impl@@YAX_J0PEAUae_matrix@1@00100PEAUae_state@1@@Z
	 ?cmatrixtrinverse@alglib@@YAXAEAVcomplex_2d_array@1@_J_N2AEA_JAEAVmatinvreport@1@@Z
	 ?cmatrixtrinverse@alglib@@YAXAEAVcomplex_2d_array@1@_NAEA_JAEAVmatinvreport@1@@Z
	 ?cmatrixtrinverse@alglib_impl@@YAXPEAUae_matrix@1@_J_N2PEA_JPEAUmatinvreport@1@PEAUae_state@1@@Z
	 ?cmatrixtrrcond1@alglib@@YANAEBVcomplex_2d_array@1@_J_N2@Z
	 ?cmatrixtrrcond1@alglib_impl@@YANPEAUae_matrix@1@_J_N2PEAUae_state@1@@Z
	 ?cmatrixtrrcondinf@alglib@@YANAEBVcomplex_2d_array@1@_J_N2@Z
	 ?cmatrixtrrcondinf@alglib_impl@@YANPEAUae_matrix@1@_J_N2PEAUae_state@1@@Z
	 ?fblscgcreate@alglib_impl@@YAXPEAUae_vector@1@0_JPEAUfblslincgstate@1@PEAUae_state@1@@Z
	 ?fblscgiteration@alglib_impl@@YA_NPEAUfblslincgstate@1@PEAUae_state@1@@Z
	 ?fblscholeskysolve@alglib_impl@@YAXPEAUae_matrix@1@N_J_NPEAUae_vector@1@3PEAUae_state@1@@Z
	 ?fblssolvecgx@alglib_impl@@YAXPEAUae_matrix@1@_J1NPEAUae_vector@1@22PEAUae_state@1@@Z
	 ?fblssolvels@alglib_impl@@YAXPEAUae_matrix@1@PEAUae_vector@1@_J2111PEAUae_state@1@@Z
	 ?hmatrixevd@alglib@@YA_NAEBVcomplex_2d_array@1@_J1_NAEAVreal_1d_array@1@AEAV21@@Z
	 ?hmatrixevd@alglib_impl@@YA_NPEAUae_matrix@1@_J1_NPEAUae_vector@1@0PEAUae_state@1@@Z
	 ?hmatrixevdi@alglib@@YA_NAEBVcomplex_2d_array@1@_J1_N11AEAVreal_1d_array@1@AEAV21@@Z
	 ?hmatrixevdi@alglib_impl@@YA_NPEAUae_matrix@1@_J1_N11PEAUae_vector@1@0PEAUae_state@1@@Z
	 ?hmatrixevdr@alglib@@YA_NAEBVcomplex_2d_array@1@_J1_NNNAEA_JAEAVreal_1d_array@1@AEAV21@@Z
	 ?hmatrixevdr@alglib_impl@@YA_NPEAUae_matrix@1@_J1_NNNPEA_JPEAUae_vector@1@0PEAUae_state@1@@Z
	 ?hmatrixrndcond@alglib@@YAX_JNAEAVcomplex_2d_array@1@@Z
	 ?hmatrixrndcond@alglib_impl@@YAX_JNPEAUae_matrix@1@PEAUae_state@1@@Z
	 ?hmatrixrndmultiply@alglib@@YAXAEAVcomplex_2d_array@1@_J@Z
	 ?hmatrixrndmultiply@alglib_impl@@YAXPEAUae_matrix@1@_JPEAUae_state@1@@Z
	 ?hmatrixtd@alglib@@YAXAEAVcomplex_2d_array@1@_J_NAEAVcomplex_1d_array@1@AEAVreal_1d_array@1@4@Z
	 ?hmatrixtd@alglib_impl@@YAXPEAUae_matrix@1@_J_NPEAUae_vector@1@33PEAUae_state@1@@Z
	 ?hmatrixtdunpackq@alglib@@YAXAEBVcomplex_2d_array@1@_J_NAEBVcomplex_1d_array@1@AEAV21@@Z
	 ?hmatrixtdunpackq@alglib_impl@@YAXPEAUae_matrix@1@_J_NPEAUae_vector@1@0PEAUae_state@1@@Z
	 ?hpdmatrixcholesky@alglib@@YA_NAEAVcomplex_2d_array@1@_J_N@Z
	 ?hpdmatrixcholesky@alglib_impl@@YA_NPEAUae_matrix@1@_J_NPEAUae_state@1@@Z
	 ?hpdmatrixcholeskyinverse@alglib@@YAXAEAVcomplex_2d_array@1@_J_NAEA_JAEAVmatinvreport@1@@Z
	 ?hpdmatrixcholeskyinverse@alglib@@YAXAEAVcomplex_2d_array@1@AEA_JAEAVmatinvreport@1@@Z
	 ?hpdmatrixcholeskyinverse@alglib_impl@@YAXPEAUae_matrix@1@_J_NPEA_JPEAUmatinvreport@1@PEAUae_state@1@@Z
	 ?hpdmatrixcholeskyrcond@alglib@@YANAEBVcomplex_2d_array@1@_J_N@Z
	 ?hpdmatrixcholeskyrcond@alglib_impl@@YANPEAUae_matrix@1@_J_NPEAUae_state@1@@Z
	 ?hpdmatrixinverse@alglib@@YAXAEAVcomplex_2d_array@1@_J_NAEA_JAEAVmatinvreport@1@@Z
	 ?hpdmatrixinverse@alglib@@YAXAEAVcomplex_2d_array@1@AEA_JAEAVmatinvreport@1@@Z
	 ?hpdmatrixinverse@alglib_impl@@YAXPEAUae_matrix@1@_J_NPEA_JPEAUmatinvreport@1@PEAUae_state@1@@Z
	 ?hpdmatrixrcond@alglib@@YANAEBVcomplex_2d_array@1@_J_N@Z
	 ?hpdmatrixrcond@alglib_impl@@YANPEAUae_matrix@1@_J_NPEAUae_state@1@@Z
	 ?hpdmatrixrndcond@alglib@@YAX_JNAEAVcomplex_2d_array@1@@Z
	 ?hpdmatrixrndcond@alglib_impl@@YAX_JNPEAUae_matrix@1@PEAUae_state@1@@Z
	 ?normestimatorcreate@alglib@@YAX_J000AEAVnormestimatorstate@1@@Z
	 ?normestimatorcreate@alglib_impl@@YAX_J000PEAUnormestimatorstate@1@PEAUae_state@1@@Z
	 ?normestimatorestimatesparse@alglib@@YAXAEBVnormestimatorstate@1@AEBVsparsematrix@1@@Z
	 ?normestimatorestimatesparse@alglib_impl@@YAXPEAUnormestimatorstate@1@PEAUsparsematrix@1@PEAUae_state@1@@Z
	 ?normestimatoriteration@alglib_impl@@YA_NPEAUnormestimatorstate@1@PEAUae_state@1@@Z
	 ?normestimatorrestart@alglib_impl@@YAXPEAUnormestimatorstate@1@PEAUae_state@1@@Z
	 ?normestimatorresults@alglib@@YAXAEBVnormestimatorstate@1@AEAN@Z
	 ?normestimatorresults@alglib_impl@@YAXPEAUnormestimatorstate@1@PEANPEAUae_state@1@@Z
	 ?normestimatorsetseed@alglib@@YAXAEBVnormestimatorstate@1@_J@Z
	 ?normestimatorsetseed@alglib_impl@@YAXPEAUnormestimatorstate@1@_JPEAUae_state@1@@Z
	 ?rcondthreshold@alglib_impl@@YANPEAUae_state@1@@Z
	 ?rmatrixbd@alglib@@YAXAEAVreal_2d_array@1@_J1AEAVreal_1d_array@1@2@Z
	 ?rmatrixbd@alglib_impl@@YAXPEAUae_matrix@1@_J1PEAUae_vector@1@2PEAUae_state@1@@Z
	 ?rmatrixbdmultiplybyp@alglib@@YAXAEBVreal_2d_array@1@_J1AEBVreal_1d_array@1@AEAV21@11_N4@Z
	 ?rmatrixbdmultiplybyp@alglib_impl@@YAXPEAUae_matrix@1@_J1PEAUae_vector@1@011_N3PEAUae_state@1@@Z
	 ?rmatrixbdmultiplybyq@alglib@@YAXAEBVreal_2d_array@1@_J1AEBVreal_1d_array@1@AEAV21@11_N4@Z
	 ?rmatrixbdmultiplybyq@alglib_impl@@YAXPEAUae_matrix@1@_J1PEAUae_vector@1@011_N3PEAUae_state@1@@Z
	 ?rmatrixbdsvd@alglib@@YA_NAEAVreal_1d_array@1@AEBV21@_J_N3AEAVreal_2d_array@1@24242@Z
	 ?rmatrixbdsvd@alglib_impl@@YA_NPEAUae_vector@1@0_J_N2PEAUae_matrix@1@13131PEAUae_state@1@@Z
	 ?rmatrixbdunpackdiagonals@alglib@@YAXAEBVreal_2d_array@1@_J1AEA_NAEAVreal_1d_array@1@3@Z
	 ?rmatrixbdunpackdiagonals@alglib_impl@@YAXPEAUae_matrix@1@_J1PEA_NPEAUae_vector@1@3PEAUae_state@1@@Z
	 ?rmatrixbdunpackpt@alglib@@YAXAEBVreal_2d_array@1@_J1AEBVreal_1d_array@1@1AEAV21@@Z
	 ?rmatrixbdunpackpt@alglib_impl@@YAXPEAUae_matrix@1@_J1PEAUae_vector@1@10PEAUae_state@1@@Z
	 ?rmatrixbdunpackq@alglib@@YAXAEBVreal_2d_array@1@_J1AEBVreal_1d_array@1@1AEAV21@@Z
	 ?rmatrixbdunpackq@alglib_impl@@YAXPEAUae_matrix@1@_J1PEAUae_vector@1@10PEAUae_state@1@@Z
	 ?rmatrixcopy@alglib@@YAX_J0AEBVreal_2d_array@1@00AEAV21@00@Z
	 ?rmatrixcopy@alglib_impl@@YAX_J0PEAUae_matrix@1@00100PEAUae_state@1@@Z
	 ?rmatrixdet@alglib@@YANAEBVreal_2d_array@1@@Z
	 ?rmatrixdet@alglib@@YANAEBVreal_2d_array@1@_J@Z
	 ?rmatrixdet@alglib_impl@@YANPEAUae_matrix@1@_JPEAUae_state@1@@Z
	 ?rmatrixenforcesymmetricity@alglib@@YAXAEBVreal_2d_array@1@_J_N@Z
	 ?rmatrixenforcesymmetricity@alglib_impl@@YAXPEAUae_matrix@1@_J_NPEAUae_state@1@@Z
	 ?rmatrixevd@alglib@@YA_NAEBVreal_2d_array@1@_J1AEAVreal_1d_array@1@2AEAV21@3@Z
	 ?rmatrixevd@alglib_impl@@YA_NPEAUae_matrix@1@_J1PEAUae_vector@1@200PEAUae_state@1@@Z
	 ?rmatrixgemm@alglib@@YAX_J00NAEBVreal_2d_array@1@0001000N100@Z
	 ?rmatrixgemm@alglib_impl@@YAX_J00NPEAUae_matrix@1@0001000N100PEAUae_state@1@@Z
	 ?rmatrixhessenberg@alglib@@YAXAEAVreal_2d_array@1@_JAEAVreal_1d_array@1@@Z
	 ?rmatrixhessenberg@alglib_impl@@YAXPEAUae_matrix@1@_JPEAUae_vector@1@PEAUae_state@1@@Z
	 ?rmatrixhessenbergunpackh@alglib@@YAXAEBVreal_2d_array@1@_JAEAV21@@Z
	 ?rmatrixhessenbergunpackh@alglib_impl@@YAXPEAUae_matrix@1@_J0PEAUae_state@1@@Z
	 ?rmatrixhessenbergunpackq@alglib@@YAXAEBVreal_2d_array@1@_JAEBVreal_1d_array@1@AEAV21@@Z
	 ?rmatrixhessenbergunpackq@alglib_impl@@YAXPEAUae_matrix@1@_JPEAUae_vector@1@0PEAUae_state@1@@Z
	 ?rmatrixinverse@alglib@@YAXAEAVreal_2d_array@1@_JAEA_JAEAVmatinvreport@1@@Z
	 ?rmatrixinverse@alglib@@YAXAEAVreal_2d_array@1@AEA_JAEAVmatinvreport@1@@Z
	 ?rmatrixinverse@alglib_impl@@YAXPEAUae_matrix@1@_JPEA_JPEAUmatinvreport@1@PEAUae_state@1@@Z
	 ?rmatrixinvupdatecolumn@alglib@@YAXAEAVreal_2d_array@1@_J1AEBVreal_1d_array@1@@Z
	 ?rmatrixinvupdatecolumn@alglib_impl@@YAXPEAUae_matrix@1@_J1PEAUae_vector@1@PEAUae_state@1@@Z
	 ?rmatrixinvupdaterow@alglib@@YAXAEAVreal_2d_array@1@_J1AEBVreal_1d_array@1@@Z
	 ?rmatrixinvupdaterow@alglib_impl@@YAXPEAUae_matrix@1@_J1PEAUae_vector@1@PEAUae_state@1@@Z
	 ?rmatrixinvupdatesimple@alglib@@YAXAEAVreal_2d_array@1@_J11N@Z
	 ?rmatrixinvupdatesimple@alglib_impl@@YAXPEAUae_matrix@1@_J11NPEAUae_state@1@@Z
	 ?rmatrixinvupdateuv@alglib@@YAXAEAVreal_2d_array@1@_JAEBVreal_1d_array@1@2@Z
	 ?rmatrixinvupdateuv@alglib_impl@@YAXPEAUae_matrix@1@_JPEAUae_vector@1@2PEAUae_state@1@@Z
	 ?rmatrixlefttrsm@alglib@@YAX_J0AEBVreal_2d_array@1@00_N20100@Z
	 ?rmatrixlefttrsm@alglib_impl@@YAX_J0PEAUae_matrix@1@00_N20100PEAUae_state@1@@Z
	 ?rmatrixlq@alglib@@YAXAEAVreal_2d_array@1@_J1AEAVreal_1d_array@1@@Z
	 ?rmatrixlq@alglib_impl@@YAXPEAUae_matrix@1@_J1PEAUae_vector@1@PEAUae_state@1@@Z
	 ?rmatrixlqbasecase@alglib_impl@@YAXPEAUae_matrix@1@_J1PEAUae_vector@1@22PEAUae_state@1@@Z
	 ?rmatrixlqunpackl@alglib@@YAXAEBVreal_2d_array@1@_J1AEAV21@@Z
	 ?rmatrixlqunpackl@alglib_impl@@YAXPEAUae_matrix@1@_J10PEAUae_state@1@@Z
	 ?rmatrixlqunpackq@alglib@@YAXAEBVreal_2d_array@1@_J1AEBVreal_1d_array@1@1AEAV21@@Z
	 ?rmatrixlqunpackq@alglib_impl@@YAXPEAUae_matrix@1@_J1PEAUae_vector@1@10PEAUae_state@1@@Z
	 ?rmatrixlu@alglib@@YAXAEAVreal_2d_array@1@_J1AEAVinteger_1d_array@1@@Z
	 ?rmatrixlu@alglib_impl@@YAXPEAUae_matrix@1@_J1PEAUae_vector@1@PEAUae_state@1@@Z
	 ?rmatrixludet@alglib@@YANAEBVreal_2d_array@1@AEBVinteger_1d_array@1@@Z
	 ?rmatrixludet@alglib@@YANAEBVreal_2d_array@1@AEBVinteger_1d_array@1@_J@Z
	 ?rmatrixludet@alglib_impl@@YANPEAUae_matrix@1@PEAUae_vector@1@_JPEAUae_state@1@@Z
	 ?rmatrixluinverse@alglib@@YAXAEAVreal_2d_array@1@AEBVinteger_1d_array@1@_JAEA_JAEAVmatinvreport@1@@Z
	 ?rmatrixluinverse@alglib@@YAXAEAVreal_2d_array@1@AEBVinteger_1d_array@1@AEA_JAEAVmatinvreport@1@@Z
	 ?rmatrixluinverse@alglib_impl@@YAXPEAUae_matrix@1@PEAUae_vector@1@_JPEA_JPEAUmatinvreport@1@PEAUae_state@1@@Z
	 ?rmatrixlup@alglib_impl@@YAXPEAUae_matrix@1@_J1PEAUae_vector@1@PEAUae_state@1@@Z
	 ?rmatrixlurcond1@alglib@@YANAEBVreal_2d_array@1@_J@Z
	 ?rmatrixlurcond1@alglib_impl@@YANPEAUae_matrix@1@_JPEAUae_state@1@@Z
	 ?rmatrixlurcondinf@alglib@@YANAEBVreal_2d_array@1@_J@Z
	 ?rmatrixlurcondinf@alglib_impl@@YANPEAUae_matrix@1@_JPEAUae_state@1@@Z
	 ?rmatrixmv@alglib@@YAX_J0AEBVreal_2d_array@1@000AEBVreal_1d_array@1@0AEAV31@0@Z
	 ?rmatrixmv@alglib_impl@@YAX_J0PEAUae_matrix@1@000PEAUae_vector@1@020PEAUae_state@1@@Z
	 ?rmatrixplu@alglib_impl@@YAXPEAUae_matrix@1@_J1PEAUae_vector@1@PEAUae_state@1@@Z
	 ?rmatrixqr@alglib@@YAXAEAVreal_2d_array@1@_J1AEAVreal_1d_array@1@@Z
	 ?rmatrixqr@alglib_impl@@YAXPEAUae_matrix@1@_J1PEAUae_vector@1@PEAUae_state@1@@Z
	 ?rmatrixqrbasecase@alglib_impl@@YAXPEAUae_matrix@1@_J1PEAUae_vector@1@22PEAUae_state@1@@Z
	 ?rmatrixqrunpackq@alglib@@YAXAEBVreal_2d_array@1@_J1AEBVreal_1d_array@1@1AEAV21@@Z
	 ?rmatrixqrunpackq@alglib_impl@@YAXPEAUae_matrix@1@_J1PEAUae_vector@1@10PEAUae_state@1@@Z
	 ?rmatrixqrunpackr@alglib@@YAXAEBVreal_2d_array@1@_J1AEAV21@@Z
	 ?rmatrixqrunpackr@alglib_impl@@YAXPEAUae_matrix@1@_J10PEAUae_state@1@@Z
	 ?rmatrixrank1@alglib@@YAX_J0AEAVreal_2d_array@1@00AEAVreal_1d_array@1@020@Z
	 ?rmatrixrank1@alglib_impl@@YAX_J0PEAUae_matrix@1@00PEAUae_vector@1@020PEAUae_state@1@@Z
	 ?rmatrixrcond1@alglib@@YANAEBVreal_2d_array@1@_J@Z
	 ?rmatrixrcond1@alglib_impl@@YANPEAUae_matrix@1@_JPEAUae_state@1@@Z
	 ?rmatrixrcondinf@alglib@@YANAEBVreal_2d_array@1@_J@Z
	 ?rmatrixrcondinf@alglib_impl@@YANPEAUae_matrix@1@_JPEAUae_state@1@@Z
	 ?rmatrixrighttrsm@alglib@@YAX_J0AEBVreal_2d_array@1@00_N20100@Z
	 ?rmatrixrighttrsm@alglib_impl@@YAX_J0PEAUae_matrix@1@00_N20100PEAUae_state@1@@Z
	 ?rmatrixrndcond@alglib@@YAX_JNAEAVreal_2d_array@1@@Z
	 ?rmatrixrndcond@alglib_impl@@YAX_JNPEAUae_matrix@1@PEAUae_state@1@@Z
	 ?rmatrixrndorthogonal@alglib@@YAX_JAEAVreal_2d_array@1@@Z
	 ?rmatrixrndorthogonal@alglib_impl@@YAX_JPEAUae_matrix@1@PEAUae_state@1@@Z
	 ?rmatrixrndorthogonalfromtheleft@alglib@@YAXAEAVreal_2d_array@1@_J1@Z
	 ?rmatrixrndorthogonalfromtheleft@alglib_impl@@YAXPEAUae_matrix@1@_J1PEAUae_state@1@@Z
	 ?rmatrixrndorthogonalfromtheright@alglib@@YAXAEAVreal_2d_array@1@_J1@Z
	 ?rmatrixrndorthogonalfromtheright@alglib_impl@@YAXPEAUae_matrix@1@_J1PEAUae_state@1@@Z
	 ?rmatrixschur@alglib@@YA_NAEAVreal_2d_array@1@_J0@Z
	 ?rmatrixschur@alglib_impl@@YA_NPEAUae_matrix@1@_J0PEAUae_state@1@@Z
	 ?rmatrixsvd@alglib@@YA_NAEBVreal_2d_array@1@_J1111AEAVreal_1d_array@1@AEAV21@3@Z
	 ?rmatrixsvd@alglib_impl@@YA_NPEAUae_matrix@1@_J1111PEAUae_vector@1@00PEAUae_state@1@@Z
	 ?rmatrixsyrk@alglib@@YAX_J0NAEBVreal_2d_array@1@000N100_N@Z
	 ?rmatrixsyrk@alglib_impl@@YAX_J0NPEAUae_matrix@1@000N100_NPEAUae_state@1@@Z
	 ?rmatrixtranspose@alglib@@YAX_J0AEBVreal_2d_array@1@00100@Z
	 ?rmatrixtranspose@alglib_impl@@YAX_J0PEAUae_matrix@1@00100PEAUae_state@1@@Z
	 ?rmatrixtrinverse@alglib@@YAXAEAVreal_2d_array@1@_J_N2AEA_JAEAVmatinvreport@1@@Z
	 ?rmatrixtrinverse@alglib@@YAXAEAVreal_2d_array@1@_NAEA_JAEAVmatinvreport@1@@Z
	 ?rmatrixtrinverse@alglib_impl@@YAXPEAUae_matrix@1@_J_N2PEA_JPEAUmatinvreport@1@PEAUae_state@1@@Z
	 ?rmatrixtrrcond1@alglib@@YANAEBVreal_2d_array@1@_J_N2@Z
	 ?rmatrixtrrcond1@alglib_impl@@YANPEAUae_matrix@1@_J_N2PEAUae_state@1@@Z
	 ?rmatrixtrrcondinf@alglib@@YANAEBVreal_2d_array@1@_J_N2@Z
	 ?rmatrixtrrcondinf@alglib_impl@@YANPEAUae_matrix@1@_J_N2PEAUae_state@1@@Z
	 ?smatrixevd@alglib@@YA_NAEBVreal_2d_array@1@_J1_NAEAVreal_1d_array@1@AEAV21@@Z
	 ?smatrixevd@alglib_impl@@YA_NPEAUae_matrix@1@_J1_NPEAUae_vector@1@0PEAUae_state@1@@Z
	 ?smatrixevdi@alglib@@YA_NAEBVreal_2d_array@1@_J1_N11AEAVreal_1d_array@1@AEAV21@@Z
	 ?smatrixevdi@alglib_impl@@YA_NPEAUae_matrix@1@_J1_N11PEAUae_vector@1@0PEAUae_state@1@@Z
	 ?smatrixevdr@alglib@@YA_NAEBVreal_2d_array@1@_J1_NNNAEA_JAEAVreal_1d_array@1@AEAV21@@Z
	 ?smatrixevdr@alglib_impl@@YA_NPEAUae_matrix@1@_J1_NNNPEA_JPEAUae_vector@1@0PEAUae_state@1@@Z
	 ?smatrixgevd@alglib@@YA_NAEBVreal_2d_array@1@_J_N0211AEAVreal_1d_array@1@AEAV21@@Z
	 ?smatrixgevd@alglib_impl@@YA_NPEAUae_matrix@1@_J_N0211PEAUae_vector@1@0PEAUae_state@1@@Z
	 ?smatrixgevdreduce@alglib@@YA_NAEAVreal_2d_array@1@_J_NAEBV21@210AEA_N@Z
	 ?smatrixgevdreduce@alglib_impl@@YA_NPEAUae_matrix@1@_J_N0210PEA_NPEAUae_state@1@@Z
	 ?smatrixrndcond@alglib@@YAX_JNAEAVreal_2d_array@1@@Z
	 ?smatrixrndcond@alglib_impl@@YAX_JNPEAUae_matrix@1@PEAUae_state@1@@Z
	 ?smatrixrndmultiply@alglib@@YAXAEAVreal_2d_array@1@_J@Z
	 ?smatrixrndmultiply@alglib_impl@@YAXPEAUae_matrix@1@_JPEAUae_state@1@@Z
	 ?smatrixtd@alglib@@YAXAEAVreal_2d_array@1@_J_NAEAVreal_1d_array@1@33@Z
	 ?smatrixtd@alglib_impl@@YAXPEAUae_matrix@1@_J_NPEAUae_vector@1@33PEAUae_state@1@@Z
	 ?smatrixtdevd@alglib@@YA_NAEAVreal_1d_array@1@AEBV21@_J2AEAVreal_2d_array@1@@Z
	 ?smatrixtdevd@alglib_impl@@YA_NPEAUae_vector@1@0_J1PEAUae_matrix@1@PEAUae_state@1@@Z
	 ?smatrixtdevdi@alglib@@YA_NAEAVreal_1d_array@1@AEBV21@_J222AEAVreal_2d_array@1@@Z
	 ?smatrixtdevdi@alglib_impl@@YA_NPEAUae_vector@1@0_J111PEAUae_matrix@1@PEAUae_state@1@@Z
	 ?smatrixtdevdr@alglib@@YA_NAEAVreal_1d_array@1@AEBV21@_J2NNAEA_JAEAVreal_2d_array@1@@Z
	 ?smatrixtdevdr@alglib_impl@@YA_NPEAUae_vector@1@0_J1NNPEA_JPEAUae_matrix@1@PEAUae_state@1@@Z
	 ?smatrixtdunpackq@alglib@@YAXAEBVreal_2d_array@1@_J_NAEBVreal_1d_array@1@AEAV21@@Z
	 ?smatrixtdunpackq@alglib_impl@@YAXPEAUae_matrix@1@_J_NPEAUae_vector@1@0PEAUae_state@1@@Z
	 ?smp_cmatrixgemm@alglib@@YAX_J00Vcomplex@1@AEBVcomplex_2d_array@1@00020001200@Z
	 ?smp_cmatrixherk@alglib@@YAX_J0NAEBVcomplex_2d_array@1@000N100_N@Z
	 ?smp_cmatrixinverse@alglib@@YAXAEAVcomplex_2d_array@1@_JAEA_JAEAVmatinvreport@1@@Z
	 ?smp_cmatrixinverse@alglib@@YAXAEAVcomplex_2d_array@1@AEA_JAEAVmatinvreport@1@@Z
	 ?smp_cmatrixlefttrsm@alglib@@YAX_J0AEBVcomplex_2d_array@1@00_N20100@Z
	 ?smp_cmatrixlq@alglib@@YAXAEAVcomplex_2d_array@1@_J1AEAVcomplex_1d_array@1@@Z
	 ?smp_cmatrixlqunpackq@alglib@@YAXAEBVcomplex_2d_array@1@_J1AEBVcomplex_1d_array@1@1AEAV21@@Z
	 ?smp_cmatrixlu@alglib@@YAXAEAVcomplex_2d_array@1@_J1AEAVinteger_1d_array@1@@Z
	 ?smp_cmatrixluinverse@alglib@@YAXAEAVcomplex_2d_array@1@AEBVinteger_1d_array@1@_JAEA_JAEAVmatinvreport@1@@Z
	 ?smp_cmatrixluinverse@alglib@@YAXAEAVcomplex_2d_array@1@AEBVinteger_1d_array@1@AEA_JAEAVmatinvreport@1@@Z
	 ?smp_cmatrixqr@alglib@@YAXAEAVcomplex_2d_array@1@_J1AEAVcomplex_1d_array@1@@Z
	 ?smp_cmatrixqrunpackq@alglib@@YAXAEBVcomplex_2d_array@1@_J1AEBVcomplex_1d_array@1@1AEAV21@@Z
	 ?smp_cmatrixrighttrsm@alglib@@YAX_J0AEBVcomplex_2d_array@1@00_N20100@Z
	 ?smp_cmatrixsyrk@alglib@@YAX_J0NAEBVcomplex_2d_array@1@000N100_N@Z
	 ?smp_cmatrixtrinverse@alglib@@YAXAEAVcomplex_2d_array@1@_J_N2AEA_JAEAVmatinvreport@1@@Z
	 ?smp_cmatrixtrinverse@alglib@@YAXAEAVcomplex_2d_array@1@_NAEA_JAEAVmatinvreport@1@@Z
	 ?smp_hpdmatrixcholesky@alglib@@YA_NAEAVcomplex_2d_array@1@_J_N@Z
	 ?smp_hpdmatrixcholeskyinverse@alglib@@YAXAEAVcomplex_2d_array@1@_J_NAEA_JAEAVmatinvreport@1@@Z
	 ?smp_hpdmatrixcholeskyinverse@alglib@@YAXAEAVcomplex_2d_array@1@AEA_JAEAVmatinvreport@1@@Z
	 ?smp_hpdmatrixinverse@alglib@@YAXAEAVcomplex_2d_array@1@_J_NAEA_JAEAVmatinvreport@1@@Z
	 ?smp_hpdmatrixinverse@alglib@@YAXAEAVcomplex_2d_array@1@AEA_JAEAVmatinvreport@1@@Z
	 ?smp_rmatrixgemm@alglib@@YAX_J00NAEBVreal_2d_array@1@0001000N100@Z
	 ?smp_rmatrixinverse@alglib@@YAXAEAVreal_2d_array@1@_JAEA_JAEAVmatinvreport@1@@Z
	 ?smp_rmatrixinverse@alglib@@YAXAEAVreal_2d_array@1@AEA_JAEAVmatinvreport@1@@Z
	 ?smp_rmatrixlefttrsm@alglib@@YAX_J0AEBVreal_2d_array@1@00_N20100@Z
	 ?smp_rmatrixlq@alglib@@YAXAEAVreal_2d_array@1@_J1AEAVreal_1d_array@1@@Z
	 ?smp_rmatrixlqunpackq@alglib@@YAXAEBVreal_2d_array@1@_J1AEBVreal_1d_array@1@1AEAV21@@Z
	 ?smp_rmatrixlu@alglib@@YAXAEAVreal_2d_array@1@_J1AEAVinteger_1d_array@1@@Z
	 ?smp_rmatrixluinverse@alglib@@YAXAEAVreal_2d_array@1@AEBVinteger_1d_array@1@_JAEA_JAEAVmatinvreport@1@@Z
	 ?smp_rmatrixluinverse@alglib@@YAXAEAVreal_2d_array@1@AEBVinteger_1d_array@1@AEA_JAEAVmatinvreport@1@@Z
	 ?smp_rmatrixqr@alglib@@YAXAEAVreal_2d_array@1@_J1AEAVreal_1d_array@1@@Z
	 ?smp_rmatrixqrunpackq@alglib@@YAXAEBVreal_2d_array@1@_J1AEBVreal_1d_array@1@1AEAV21@@Z
	 ?smp_rmatrixrighttrsm@alglib@@YAX_J0AEBVreal_2d_array@1@00_N20100@Z
	 ?smp_rmatrixsvd@alglib@@YA_NAEBVreal_2d_array@1@_J1111AEAVreal_1d_array@1@AEAV21@3@Z
	 ?smp_rmatrixsyrk@alglib@@YAX_J0NAEBVreal_2d_array@1@000N100_N@Z
	 ?smp_rmatrixtrinverse@alglib@@YAXAEAVreal_2d_array@1@_J_N2AEA_JAEAVmatinvreport@1@@Z
	 ?smp_rmatrixtrinverse@alglib@@YAXAEAVreal_2d_array@1@_NAEA_JAEAVmatinvreport@1@@Z
	 ?smp_spdmatrixcholesky@alglib@@YA_NAEAVreal_2d_array@1@_J_N@Z
	 ?smp_spdmatrixcholeskyinverse@alglib@@YAXAEAVreal_2d_array@1@_J_NAEA_JAEAVmatinvreport@1@@Z
	 ?smp_spdmatrixcholeskyinverse@alglib@@YAXAEAVreal_2d_array@1@AEA_JAEAVmatinvreport@1@@Z
	 ?smp_spdmatrixinverse@alglib@@YAXAEAVreal_2d_array@1@_J_NAEA_JAEAVmatinvreport@1@@Z
	 ?smp_spdmatrixinverse@alglib@@YAXAEAVreal_2d_array@1@AEA_JAEAVmatinvreport@1@@Z
	 ?sparseadd@alglib@@YAXAEBVsparsematrix@1@_J1N@Z
	 ?sparseadd@alglib_impl@@YAXPEAUsparsematrix@1@_J1NPEAUae_state@1@@Z
	 ?sparsecholeskyskyline@alglib@@YA_NAEBVsparsematrix@1@_J_N@Z
	 ?sparsecholeskyskyline@alglib_impl@@YA_NPEAUsparsematrix@1@_J_NPEAUae_state@1@@Z
	 ?sparsecholeskyx@alglib_impl@@YA_NPEAUsparsematrix@1@_J_NPEAUae_vector@1@3111PEAUsparsebuffers@1@0PEAUae_state@1@@Z
	 ?sparseconvertto@alglib@@YAXAEBVsparsematrix@1@_J@Z
	 ?sparseconvertto@alglib_impl@@YAXPEAUsparsematrix@1@_JPEAUae_state@1@@Z
	 ?sparseconverttocrs@alglib@@YAXAEBVsparsematrix@1@@Z
	 ?sparseconverttocrs@alglib_impl@@YAXPEAUsparsematrix@1@PEAUae_state@1@@Z
	 ?sparseconverttohash@alglib@@YAXAEBVsparsematrix@1@@Z
	 ?sparseconverttohash@alglib_impl@@YAXPEAUsparsematrix@1@PEAUae_state@1@@Z
	 ?sparseconverttosks@alglib@@YAXAEBVsparsematrix@1@@Z
	 ?sparseconverttosks@alglib_impl@@YAXPEAUsparsematrix@1@PEAUae_state@1@@Z
	 ?sparsecopy@alglib@@YAXAEBVsparsematrix@1@AEAV21@@Z
	 ?sparsecopy@alglib_impl@@YAXPEAUsparsematrix@1@0PEAUae_state@1@@Z
	 ?sparsecopybuf@alglib@@YAXAEBVsparsematrix@1@0@Z
	 ?sparsecopybuf@alglib_impl@@YAXPEAUsparsematrix@1@0PEAUae_state@1@@Z
	 ?sparsecopytobuf@alglib@@YAXAEBVsparsematrix@1@_J0@Z
	 ?sparsecopytobuf@alglib_impl@@YAXPEAUsparsematrix@1@_J0PEAUae_state@1@@Z
	 ?sparsecopytocrs@alglib@@YAXAEBVsparsematrix@1@AEAV21@@Z
	 ?sparsecopytocrs@alglib_impl@@YAXPEAUsparsematrix@1@0PEAUae_state@1@@Z
	 ?sparsecopytocrsbuf@alglib@@YAXAEBVsparsematrix@1@0@Z
	 ?sparsecopytocrsbuf@alglib_impl@@YAXPEAUsparsematrix@1@0PEAUae_state@1@@Z
	 ?sparsecopytohash@alglib@@YAXAEBVsparsematrix@1@AEAV21@@Z
	 ?sparsecopytohash@alglib_impl@@YAXPEAUsparsematrix@1@0PEAUae_state@1@@Z
	 ?sparsecopytohashbuf@alglib@@YAXAEBVsparsematrix@1@0@Z
	 ?sparsecopytohashbuf@alglib_impl@@YAXPEAUsparsematrix@1@0PEAUae_state@1@@Z
	 ?sparsecopytosks@alglib@@YAXAEBVsparsematrix@1@AEAV21@@Z
	 ?sparsecopytosks@alglib_impl@@YAXPEAUsparsematrix@1@0PEAUae_state@1@@Z
	 ?sparsecopytosksbuf@alglib@@YAXAEBVsparsematrix@1@0@Z
	 ?sparsecopytosksbuf@alglib_impl@@YAXPEAUsparsematrix@1@0PEAUae_state@1@@Z
	 ?sparsecreate@alglib@@YAX_J00AEAVsparsematrix@1@@Z
	 ?sparsecreate@alglib@@YAX_J0AEAVsparsematrix@1@@Z
	 ?sparsecreate@alglib_impl@@YAX_J00PEAUsparsematrix@1@PEAUae_state@1@@Z
	 ?sparsecreatebuf@alglib@@YAX_J00AEBVsparsematrix@1@@Z
	 ?sparsecreatebuf@alglib@@YAX_J0AEBVsparsematrix@1@@Z
	 ?sparsecreatebuf@alglib_impl@@YAX_J00PEAUsparsematrix@1@PEAUae_state@1@@Z
	 ?sparsecreatecrs@alglib@@YAX_J0AEBVinteger_1d_array@1@AEAVsparsematrix@1@@Z
	 ?sparsecreatecrs@alglib_impl@@YAX_J0PEAUae_vector@1@PEAUsparsematrix@1@PEAUae_state@1@@Z
	 ?sparsecreatecrsbuf@alglib@@YAX_J0AEBVinteger_1d_array@1@AEBVsparsematrix@1@@Z
	 ?sparsecreatecrsbuf@alglib_impl@@YAX_J0PEAUae_vector@1@PEAUsparsematrix@1@PEAUae_state@1@@Z
	 ?sparsecreatesks@alglib@@YAX_J0AEBVinteger_1d_array@1@1AEAVsparsematrix@1@@Z
	 ?sparsecreatesks@alglib_impl@@YAX_J0PEAUae_vector@1@1PEAUsparsematrix@1@PEAUae_state@1@@Z
	 ?sparsecreatesksbuf@alglib@@YAX_J0AEBVinteger_1d_array@1@1AEBVsparsematrix@1@@Z
	 ?sparsecreatesksbuf@alglib_impl@@YAX_J0PEAUae_vector@1@1PEAUsparsematrix@1@PEAUae_state@1@@Z
	 ?sparseenumerate@alglib@@YA_NAEBVsparsematrix@1@AEA_J111AEAN@Z
	 ?sparseenumerate@alglib_impl@@YA_NPEAUsparsematrix@1@PEA_J111PEANPEAUae_state@1@@Z
	 ?sparsefree@alglib@@YAXAEAVsparsematrix@1@@Z
	 ?sparsefree@alglib_impl@@YAXPEAUsparsematrix@1@PEAUae_state@1@@Z
	 ?sparseget@alglib@@YANAEBVsparsematrix@1@_J1@Z
	 ?sparseget@alglib_impl@@YANPEAUsparsematrix@1@_J1PEAUae_state@1@@Z
	 ?sparsegetaveragelengthofchain@alglib_impl@@YANPEAUsparsematrix@1@PEAUae_state@1@@Z
	 ?sparsegetcompressedrow@alglib@@YAXAEBVsparsematrix@1@_JAEAVinteger_1d_array@1@AEAVreal_1d_array@1@AEA_J@Z
	 ?sparsegetcompressedrow@alglib_impl@@YAXPEAUsparsematrix@1@_JPEAUae_vector@1@2PEA_JPEAUae_state@1@@Z
	 ?sparsegetdiagonal@alglib@@YANAEBVsparsematrix@1@_J@Z
	 ?sparsegetdiagonal@alglib_impl@@YANPEAUsparsematrix@1@_JPEAUae_state@1@@Z
	 ?sparsegetlowercount@alglib@@YA_JAEBVsparsematrix@1@@Z
	 ?sparsegetlowercount@alglib_impl@@YA_JPEAUsparsematrix@1@PEAUae_state@1@@Z
	 ?sparsegetmatrixtype@alglib@@YA_JAEBVsparsematrix@1@@Z
	 ?sparsegetmatrixtype@alglib_impl@@YA_JPEAUsparsematrix@1@PEAUae_state@1@@Z
	 ?sparsegetncols@alglib@@YA_JAEBVsparsematrix@1@@Z
	 ?sparsegetncols@alglib_impl@@YA_JPEAUsparsematrix@1@PEAUae_state@1@@Z
	 ?sparsegetnrows@alglib@@YA_JAEBVsparsematrix@1@@Z
	 ?sparsegetnrows@alglib_impl@@YA_JPEAUsparsematrix@1@PEAUae_state@1@@Z
	 ?sparsegetrow@alglib@@YAXAEBVsparsematrix@1@_JAEAVreal_1d_array@1@@Z
	 ?sparsegetrow@alglib_impl@@YAXPEAUsparsematrix@1@_JPEAUae_vector@1@PEAUae_state@1@@Z
	 ?sparsegetuppercount@alglib@@YA_JAEBVsparsematrix@1@@Z
	 ?sparsegetuppercount@alglib_impl@@YA_JPEAUsparsematrix@1@PEAUae_state@1@@Z
	 ?sparseiscrs@alglib@@YA_NAEBVsparsematrix@1@@Z
	 ?sparseiscrs@alglib_impl@@YA_NPEAUsparsematrix@1@PEAUae_state@1@@Z
	 ?sparseishash@alglib@@YA_NAEBVsparsematrix@1@@Z
	 ?sparseishash@alglib_impl@@YA_NPEAUsparsematrix@1@PEAUae_state@1@@Z
	 ?sparseissks@alglib@@YA_NAEBVsparsematrix@1@@Z
	 ?sparseissks@alglib_impl@@YA_NPEAUsparsematrix@1@PEAUae_state@1@@Z
	 ?sparsemm@alglib@@YAXAEBVsparsematrix@1@AEBVreal_2d_array@1@_JAEAV31@@Z
	 ?sparsemm@alglib_impl@@YAXPEAUsparsematrix@1@PEAUae_matrix@1@_J1PEAUae_state@1@@Z
	 ?sparsemm2@alglib@@YAXAEBVsparsematrix@1@AEBVreal_2d_array@1@_JAEAV31@3@Z
	 ?sparsemm2@alglib_impl@@YAXPEAUsparsematrix@1@PEAUae_matrix@1@_J11PEAUae_state@1@@Z
	 ?sparsemtm@alglib@@YAXAEBVsparsematrix@1@AEBVreal_2d_array@1@_JAEAV31@@Z
	 ?sparsemtm@alglib_impl@@YAXPEAUsparsematrix@1@PEAUae_matrix@1@_J1PEAUae_state@1@@Z
	 ?sparsemtv@alglib@@YAXAEBVsparsematrix@1@AEBVreal_1d_array@1@AEAV31@@Z
	 ?sparsemtv@alglib_impl@@YAXPEAUsparsematrix@1@PEAUae_vector@1@1PEAUae_state@1@@Z
	 ?sparsemv@alglib@@YAXAEBVsparsematrix@1@AEBVreal_1d_array@1@AEAV31@@Z
	 ?sparsemv@alglib_impl@@YAXPEAUsparsematrix@1@PEAUae_vector@1@1PEAUae_state@1@@Z
	 ?sparsemv2@alglib@@YAXAEBVsparsematrix@1@AEBVreal_1d_array@1@AEAV31@2@Z
	 ?sparsemv2@alglib_impl@@YAXPEAUsparsematrix@1@PEAUae_vector@1@11PEAUae_state@1@@Z
	 ?sparseresizematrix@alglib@@YAXAEBVsparsematrix@1@@Z
	 ?sparseresizematrix@alglib_impl@@YAXPEAUsparsematrix@1@PEAUae_state@1@@Z
	 ?sparserewriteexisting@alglib@@YA_NAEBVsparsematrix@1@_J1N@Z
	 ?sparserewriteexisting@alglib_impl@@YA_NPEAUsparsematrix@1@_J1NPEAUae_state@1@@Z
	 ?sparseset@alglib@@YAXAEBVsparsematrix@1@_J1N@Z
	 ?sparseset@alglib_impl@@YAXPEAUsparsematrix@1@_J1NPEAUae_state@1@@Z
	 ?sparsesmm@alglib@@YAXAEBVsparsematrix@1@_NAEBVreal_2d_array@1@_JAEAV31@@Z
	 ?sparsesmm@alglib_impl@@YAXPEAUsparsematrix@1@_NPEAUae_matrix@1@_J2PEAUae_state@1@@Z
	 ?sparsesmv@alglib@@YAXAEBVsparsematrix@1@_NAEBVreal_1d_array@1@AEAV31@@Z
	 ?sparsesmv@alglib_impl@@YAXPEAUsparsematrix@1@_NPEAUae_vector@1@2PEAUae_state@1@@Z
	 ?sparseswap@alglib@@YAXAEBVsparsematrix@1@0@Z
	 ?sparseswap@alglib_impl@@YAXPEAUsparsematrix@1@0PEAUae_state@1@@Z
	 ?sparsetransposesks@alglib@@YAXAEBVsparsematrix@1@@Z
	 ?sparsetransposesks@alglib_impl@@YAXPEAUsparsematrix@1@PEAUae_state@1@@Z
	 ?sparsetrmv@alglib@@YAXAEBVsparsematrix@1@_N1_JAEBVreal_1d_array@1@AEAV31@@Z
	 ?sparsetrmv@alglib_impl@@YAXPEAUsparsematrix@1@_N1_JPEAUae_vector@1@3PEAUae_state@1@@Z
	 ?sparsetrsv@alglib@@YAXAEBVsparsematrix@1@_N1_JAEBVreal_1d_array@1@@Z
	 ?sparsetrsv@alglib_impl@@YAXPEAUsparsematrix@1@_N1_JPEAUae_vector@1@PEAUae_state@1@@Z
	 ?sparsevsmv@alglib@@YANAEBVsparsematrix@1@_NAEBVreal_1d_array@1@@Z
	 ?sparsevsmv@alglib_impl@@YANPEAUsparsematrix@1@_NPEAUae_vector@1@PEAUae_state@1@@Z
	 ?spdmatrixcholesky@alglib@@YA_NAEAVreal_2d_array@1@_J_N@Z
	 ?spdmatrixcholesky@alglib_impl@@YA_NPEAUae_matrix@1@_J_NPEAUae_state@1@@Z
	 ?spdmatrixcholeskydet@alglib@@YANAEBVreal_2d_array@1@@Z
	 ?spdmatrixcholeskydet@alglib@@YANAEBVreal_2d_array@1@_J@Z
	 ?spdmatrixcholeskydet@alglib_impl@@YANPEAUae_matrix@1@_JPEAUae_state@1@@Z
	 ?spdmatrixcholeskyinverse@alglib@@YAXAEAVreal_2d_array@1@_J_NAEA_JAEAVmatinvreport@1@@Z
	 ?spdmatrixcholeskyinverse@alglib@@YAXAEAVreal_2d_array@1@AEA_JAEAVmatinvreport@1@@Z
	 ?spdmatrixcholeskyinverse@alglib_impl@@YAXPEAUae_matrix@1@_J_NPEA_JPEAUmatinvreport@1@PEAUae_state@1@@Z
	 ?spdmatrixcholeskyinverserec@alglib_impl@@YAXPEAUae_matrix@1@_J1_NPEAUae_vector@1@PEAUae_state@1@@Z
	 ?spdmatrixcholeskyrcond@alglib@@YANAEBVreal_2d_array@1@_J_N@Z
	 ?spdmatrixcholeskyrcond@alglib_impl@@YANPEAUae_matrix@1@_J_NPEAUae_state@1@@Z
	 ?spdmatrixcholeskyrec@alglib_impl@@YA_NPEAUae_matrix@1@_J1_NPEAUae_vector@1@PEAUae_state@1@@Z
	 ?spdmatrixcholeskyupdateadd1@alglib@@YAXAEBVreal_2d_array@1@_J_NAEBVreal_1d_array@1@@Z
	 ?spdmatrixcholeskyupdateadd1@alglib_impl@@YAXPEAUae_matrix@1@_J_NPEAUae_vector@1@PEAUae_state@1@@Z
	 ?spdmatrixcholeskyupdateadd1buf@alglib@@YAXAEBVreal_2d_array@1@_J_NAEBVreal_1d_array@1@AEAV31@@Z
	 ?spdmatrixcholeskyupdateadd1buf@alglib_impl@@YAXPEAUae_matrix@1@_J_NPEAUae_vector@1@3PEAUae_state@1@@Z
	 ?spdmatrixcholeskyupdatefix@alglib@@YAXAEBVreal_2d_array@1@_J_NAEBVboolean_1d_array@1@@Z
	 ?spdmatrixcholeskyupdatefix@alglib_impl@@YAXPEAUae_matrix@1@_J_NPEAUae_vector@1@PEAUae_state@1@@Z
	 ?spdmatrixcholeskyupdatefixbuf@alglib@@YAXAEBVreal_2d_array@1@_J_NAEBVboolean_1d_array@1@AEAVreal_1d_array@1@@Z
	 ?spdmatrixcholeskyupdatefixbuf@alglib_impl@@YAXPEAUae_matrix@1@_J_NPEAUae_vector@1@3PEAUae_state@1@@Z
	 ?spdmatrixdet@alglib@@YANAEBVreal_2d_array@1@@Z
	 ?spdmatrixdet@alglib@@YANAEBVreal_2d_array@1@_J_N@Z
	 ?spdmatrixdet@alglib_impl@@YANPEAUae_matrix@1@_J_NPEAUae_state@1@@Z
	 ?spdmatrixinverse@alglib@@YAXAEAVreal_2d_array@1@_J_NAEA_JAEAVmatinvreport@1@@Z
	 ?spdmatrixinverse@alglib@@YAXAEAVreal_2d_array@1@AEA_JAEAVmatinvreport@1@@Z
	 ?spdmatrixinverse@alglib_impl@@YAXPEAUae_matrix@1@_J_NPEA_JPEAUmatinvreport@1@PEAUae_state@1@@Z
	 ?spdmatrixrcond@alglib@@YANAEBVreal_2d_array@1@_J_N@Z
	 ?spdmatrixrcond@alglib_impl@@YANPEAUae_matrix@1@_J_NPEAUae_state@1@@Z
	 ?spdmatrixrndcond@alglib@@YAX_JNAEAVreal_2d_array@1@@Z
	 ?spdmatrixrndcond@alglib_impl@@YAX_JNPEAUae_matrix@1@PEAUae_state@1@@Z
	 ??_7_minasareport_owner@alglib@@6B@
	 ??_7_minasastate_owner@alglib@@6B@
	 ??_7_minbleicreport_owner@alglib@@6B@
	 ??_7_minbleicstate_owner@alglib@@6B@
	 ??_7_mincgreport_owner@alglib@@6B@
	 ??_7_mincgstate_owner@alglib@@6B@
	 ??_7_minlbfgsreport_owner@alglib@@6B@
	 ??_7_minlbfgsstate_owner@alglib@@6B@
	 ??_7_minlmreport_owner@alglib@@6B@
	 ??_7_minlmstate_owner@alglib@@6B@
	 ??_7_minnlcreport_owner@alglib@@6B@
	 ??_7_minnlcstate_owner@alglib@@6B@
	 ??_7_minnsreport_owner@alglib@@6B@
	 ??_7_minnsstate_owner@alglib@@6B@
	 ??_7_minqpreport_owner@alglib@@6B@
	 ??_7_minqpstate_owner@alglib@@6B@
	 ??_7minasareport@alglib@@6B@
	 ??_7minasastate@alglib@@6B@
	 ??_7minbleicreport@alglib@@6B@
	 ??_7minbleicstate@alglib@@6B@
	 ??_7mincgreport@alglib@@6B@
	 ??_7mincgstate@alglib@@6B@
	 ??_7minlbfgsreport@alglib@@6B@
	 ??_7minlbfgsstate@alglib@@6B@
	 ??_7minlmreport@alglib@@6B@
	 ??_7minlmstate@alglib@@6B@
	 ??_7minnlcreport@alglib@@6B@
	 ??_7minnlcstate@alglib@@6B@
	 ??_7minnsreport@alglib@@6B@
	 ??_7minnsstate@alglib@@6B@
	 ??_7minqpreport@alglib@@6B@
	 ??_7minqpstate@alglib@@6B@
	 ??_R0?AV_minasareport_owner@alglib@@@8
	 ??_R0?AV_minasastate_owner@alglib@@@8
	 ??_R0?AV_minbleicreport_owner@alglib@@@8
	 ??_R0?AV_minbleicstate_owner@alglib@@@8
	 ??_R0?AV_mincgreport_owner@alglib@@@8
	 ??_R0?AV_mincgstate_owner@alglib@@@8
	 ??_R0?AV_minlbfgsreport_owner@alglib@@@8
	 ??_R0?AV_minlbfgsstate_owner@alglib@@@8
	 ??_R0?AV_minlmreport_owner@alglib@@@8
	 ??_R0?AV_minlmstate_owner@alglib@@@8
	 ??_R0?AV_minnlcreport_owner@alglib@@@8
	 ??_R0?AV_minnlcstate_owner@alglib@@@8
	 ??_R0?AV_minnsreport_owner@alglib@@@8
	 ??_R0?AV_minnsstate_owner@alglib@@@8
	 ??_R0?AV_minqpreport_owner@alglib@@@8
	 ??_R0?AV_minqpstate_owner@alglib@@@8
	 ??_R0?AVminasareport@alglib@@@8
	 ??_R0?AVminasastate@alglib@@@8
	 ??_R0?AVminbleicreport@alglib@@@8
	 ??_R0?AVminbleicstate@alglib@@@8
	 ??_R0?AVmincgreport@alglib@@@8
	 ??_R0?AVmincgstate@alglib@@@8
	 ??_R0?AVminlbfgsreport@alglib@@@8
	 ??_R0?AVminlbfgsstate@alglib@@@8
	 ??_R0?AVminlmreport@alglib@@@8
	 ??_R0?AVminlmstate@alglib@@@8
	 ??_R0?AVminnlcreport@alglib@@@8
	 ??_R0?AVminnlcstate@alglib@@@8
	 ??_R0?AVminnsreport@alglib@@@8
	 ??_R0?AVminnsstate@alglib@@@8
	 ??_R0?AVminqpreport@alglib@@@8
	 ??_R0?AVminqpstate@alglib@@@8
	 ??_R1A@?0A@EA@_minasareport_owner@alglib@@8
	 ??_R1A@?0A@EA@_minasastate_owner@alglib@@8
	 ??_R1A@?0A@EA@_minbleicreport_owner@alglib@@8
	 ??_R1A@?0A@EA@_minbleicstate_owner@alglib@@8
	 ??_R1A@?0A@EA@_mincgreport_owner@alglib@@8
	 ??_R1A@?0A@EA@_mincgstate_owner@alglib@@8
	 ??_R1A@?0A@EA@_minlbfgsreport_owner@alglib@@8
	 ??_R1A@?0A@EA@_minlbfgsstate_owner@alglib@@8
	 ??_R1A@?0A@EA@_minlmreport_owner@alglib@@8
	 ??_R1A@?0A@EA@_minlmstate_owner@alglib@@8
	 ??_R1A@?0A@EA@_minnlcreport_owner@alglib@@8
	 ??_R1A@?0A@EA@_minnlcstate_owner@alglib@@8
	 ??_R1A@?0A@EA@_minnsreport_owner@alglib@@8
	 ??_R1A@?0A@EA@_minnsstate_owner@alglib@@8
	 ??_R1A@?0A@EA@_minqpreport_owner@alglib@@8
	 ??_R1A@?0A@EA@_minqpstate_owner@alglib@@8
	 ??_R1A@?0A@EA@minasareport@alglib@@8
	 ??_R1A@?0A@EA@minasastate@alglib@@8
	 ??_R1A@?0A@EA@minbleicreport@alglib@@8
	 ??_R1A@?0A@EA@minbleicstate@alglib@@8
	 ??_R1A@?0A@EA@mincgreport@alglib@@8
	 ??_R1A@?0A@EA@mincgstate@alglib@@8
	 ??_R1A@?0A@EA@minlbfgsreport@alglib@@8
	 ??_R1A@?0A@EA@minlbfgsstate@alglib@@8
	 ??_R1A@?0A@EA@minlmreport@alglib@@8
	 ??_R1A@?0A@EA@minlmstate@alglib@@8
	 ??_R1A@?0A@EA@minnlcreport@alglib@@8
	 ??_R1A@?0A@EA@minnlcstate@alglib@@8
	 ??_R1A@?0A@EA@minnsreport@alglib@@8
	 ??_R1A@?0A@EA@minnsstate@alglib@@8
	 ??_R1A@?0A@EA@minqpreport@alglib@@8
	 ??_R1A@?0A@EA@minqpstate@alglib@@8
	 ??_R2_minasareport_owner@alglib@@8
	 ??_R2_minasastate_owner@alglib@@8
	 ??_R2_minbleicreport_owner@alglib@@8
	 ??_R2_minbleicstate_owner@alglib@@8
	 ??_R2_mincgreport_owner@alglib@@8
	 ??_R2_mincgstate_owner@alglib@@8
	 ??_R2_minlbfgsreport_owner@alglib@@8
	 ??_R2_minlbfgsstate_owner@alglib@@8
	 ??_R2_minlmreport_owner@alglib@@8
	 ??_R2_minlmstate_owner@alglib@@8
	 ??_R2_minnlcreport_owner@alglib@@8
	 ??_R2_minnlcstate_owner@alglib@@8
	 ??_R2_minnsreport_owner@alglib@@8
	 ??_R2_minnsstate_owner@alglib@@8
	 ??_R2_minqpreport_owner@alglib@@8
	 ??_R2_minqpstate_owner@alglib@@8
	 ??_R2minasareport@alglib@@8
	 ??_R2minasastate@alglib@@8
	 ??_R2minbleicreport@alglib@@8
	 ??_R2minbleicstate@alglib@@8
	 ??_R2mincgreport@alglib@@8
	 ??_R2mincgstate@alglib@@8
	 ??_R2minlbfgsreport@alglib@@8
	 ??_R2minlbfgsstate@alglib@@8
	 ??_R2minlmreport@alglib@@8
	 ??_R2minlmstate@alglib@@8
	 ??_R2minnlcreport@alglib@@8
	 ??_R2minnlcstate@alglib@@8
	 ??_R2minnsreport@alglib@@8
	 ??_R2minnsstate@alglib@@8
	 ??_R2minqpreport@alglib@@8
	 ??_R2minqpstate@alglib@@8
	 ??_R3_minasareport_owner@alglib@@8
	 ??_R3_minasastate_owner@alglib@@8
	 ??_R3_minbleicreport_owner@alglib@@8
	 ??_R3_minbleicstate_owner@alglib@@8
	 ??_R3_mincgreport_owner@alglib@@8
	 ??_R3_mincgstate_owner@alglib@@8
	 ??_R3_minlbfgsreport_owner@alglib@@8
	 ??_R3_minlbfgsstate_owner@alglib@@8
	 ??_R3_minlmreport_owner@alglib@@8
	 ??_R3_minlmstate_owner@alglib@@8
	 ??_R3_minnlcreport_owner@alglib@@8
	 ??_R3_minnlcstate_owner@alglib@@8
	 ??_R3_minnsreport_owner@alglib@@8
	 ??_R3_minnsstate_owner@alglib@@8
	 ??_R3_minqpreport_owner@alglib@@8
	 ??_R3_minqpstate_owner@alglib@@8
	 ??_R3minasareport@alglib@@8
	 ??_R3minasastate@alglib@@8
	 ??_R3minbleicreport@alglib@@8
	 ??_R3minbleicstate@alglib@@8
	 ??_R3mincgreport@alglib@@8
	 ??_R3mincgstate@alglib@@8
	 ??_R3minlbfgsreport@alglib@@8
	 ??_R3minlbfgsstate@alglib@@8
	 ??_R3minlmreport@alglib@@8
	 ??_R3minlmstate@alglib@@8
	 ??_R3minnlcreport@alglib@@8
	 ??_R3minnlcstate@alglib@@8
	 ??_R3minnsreport@alglib@@8
	 ??_R3minnsstate@alglib@@8
	 ??_R3minqpreport@alglib@@8
	 ??_R3minqpstate@alglib@@8
	 ??_R4_minasareport_owner@alglib@@6B@
	 ??_R4_minasastate_owner@alglib@@6B@
	 ??_R4_minbleicreport_owner@alglib@@6B@
	 ??_R4_minbleicstate_owner@alglib@@6B@
	 ??_R4_mincgreport_owner@alglib@@6B@
	 ??_R4_mincgstate_owner@alglib@@6B@
	 ??_R4_minlbfgsreport_owner@alglib@@6B@
	 ??_R4_minlbfgsstate_owner@alglib@@6B@
	 ??_R4_minlmreport_owner@alglib@@6B@
	 ??_R4_minlmstate_owner@alglib@@6B@
	 ??_R4_minnlcreport_owner@alglib@@6B@
	 ??_R4_minnlcstate_owner@alglib@@6B@
	 ??_R4_minnsreport_owner@alglib@@6B@
	 ??_R4_minnsstate_owner@alglib@@6B@
	 ??_R4_minqpreport_owner@alglib@@6B@
	 ??_R4_minqpstate_owner@alglib@@6B@
	 ??_R4minasareport@alglib@@6B@
	 ??_R4minasastate@alglib@@6B@
	 ??_R4minbleicreport@alglib@@6B@
	 ??_R4minbleicstate@alglib@@6B@
	 ??_R4mincgreport@alglib@@6B@
	 ??_R4mincgstate@alglib@@6B@
	 ??_R4minlbfgsreport@alglib@@6B@
	 ??_R4minlbfgsstate@alglib@@6B@
	 ??_R4minlmreport@alglib@@6B@
	 ??_R4minlmstate@alglib@@6B@
	 ??_R4minnlcreport@alglib@@6B@
	 ??_R4minnlcstate@alglib@@6B@
	 ??_R4minnsreport@alglib@@6B@
	 ??_R4minnsstate@alglib@@6B@
	 ??_R4minqpreport@alglib@@6B@
	 ??_R4minqpstate@alglib@@6B@
	 ??0_minasareport_owner@alglib@@QEAA@AEBV01@@Z
	 ??0_minasareport_owner@alglib@@QEAA@XZ
	 ??0_minasastate_owner@alglib@@QEAA@AEBV01@@Z
	 ??0_minasastate_owner@alglib@@QEAA@XZ
	 ??0_minbleicreport_owner@alglib@@QEAA@AEBV01@@Z
	 ??0_minbleicreport_owner@alglib@@QEAA@XZ
	 ??0_minbleicstate_owner@alglib@@QEAA@AEBV01@@Z
	 ??0_minbleicstate_owner@alglib@@QEAA@XZ
	 ??0_mincgreport_owner@alglib@@QEAA@AEBV01@@Z
	 ??0_mincgreport_owner@alglib@@QEAA@XZ
	 ??0_mincgstate_owner@alglib@@QEAA@AEBV01@@Z
	 ??0_mincgstate_owner@alglib@@QEAA@XZ
	 ??0_minlbfgsreport_owner@alglib@@QEAA@AEBV01@@Z
	 ??0_minlbfgsreport_owner@alglib@@QEAA@XZ
	 ??0_minlbfgsstate_owner@alglib@@QEAA@AEBV01@@Z
	 ??0_minlbfgsstate_owner@alglib@@QEAA@XZ
	 ??0_minlmreport_owner@alglib@@QEAA@AEBV01@@Z
	 ??0_minlmreport_owner@alglib@@QEAA@XZ
	 ??0_minlmstate_owner@alglib@@QEAA@AEBV01@@Z
	 ??0_minlmstate_owner@alglib@@QEAA@XZ
	 ??0_minnlcreport_owner@alglib@@QEAA@AEBV01@@Z
	 ??0_minnlcreport_owner@alglib@@QEAA@XZ
	 ??0_minnlcstate_owner@alglib@@QEAA@AEBV01@@Z
	 ??0_minnlcstate_owner@alglib@@QEAA@XZ
	 ??0_minnsreport_owner@alglib@@QEAA@AEBV01@@Z
	 ??0_minnsreport_owner@alglib@@QEAA@XZ
	 ??0_minnsstate_owner@alglib@@QEAA@AEBV01@@Z
	 ??0_minnsstate_owner@alglib@@QEAA@XZ
	 ??0_minqpreport_owner@alglib@@QEAA@AEBV01@@Z
	 ??0_minqpreport_owner@alglib@@QEAA@XZ
	 ??0_minqpstate_owner@alglib@@QEAA@AEBV01@@Z
	 ??0_minqpstate_owner@alglib@@QEAA@XZ
	 ??0ap_error@alglib@@QEAA@AEBV01@@Z
	 ??0minasareport@alglib@@QEAA@AEBV01@@Z
	 ??0minasareport@alglib@@QEAA@XZ
	 ??0minasastate@alglib@@QEAA@AEBV01@@Z
	 ??0minasastate@alglib@@QEAA@XZ
	 ??0minbleicreport@alglib@@QEAA@AEBV01@@Z
	 ??0minbleicreport@alglib@@QEAA@XZ
	 ??0minbleicstate@alglib@@QEAA@AEBV01@@Z
	 ??0minbleicstate@alglib@@QEAA@XZ
	 ??0mincgreport@alglib@@QEAA@AEBV01@@Z
	 ??0mincgreport@alglib@@QEAA@XZ
	 ??0mincgstate@alglib@@QEAA@AEBV01@@Z
	 ??0mincgstate@alglib@@QEAA@XZ
	 ??0minlbfgsreport@alglib@@QEAA@AEBV01@@Z
	 ??0minlbfgsreport@alglib@@QEAA@XZ
	 ??0minlbfgsstate@alglib@@QEAA@AEBV01@@Z
	 ??0minlbfgsstate@alglib@@QEAA@XZ
	 ??0minlmreport@alglib@@QEAA@AEBV01@@Z
	 ??0minlmreport@alglib@@QEAA@XZ
	 ??0minlmstate@alglib@@QEAA@AEBV01@@Z
	 ??0minlmstate@alglib@@QEAA@XZ
	 ??0minnlcreport@alglib@@QEAA@AEBV01@@Z
	 ??0minnlcreport@alglib@@QEAA@XZ
	 ??0minnlcstate@alglib@@QEAA@AEBV01@@Z
	 ??0minnlcstate@alglib@@QEAA@XZ
	 ??0minnsreport@alglib@@QEAA@AEBV01@@Z
	 ??0minnsreport@alglib@@QEAA@XZ
	 ??0minnsstate@alglib@@QEAA@AEBV01@@Z
	 ??0minnsstate@alglib@@QEAA@XZ
	 ??0minqpreport@alglib@@QEAA@AEBV01@@Z
	 ??0minqpreport@alglib@@QEAA@XZ
	 ??0minqpstate@alglib@@QEAA@AEBV01@@Z
	 ??0minqpstate@alglib@@QEAA@XZ
	 ??1_minasareport_owner@alglib@@UEAA@XZ
	 ??1_minasastate_owner@alglib@@UEAA@XZ
	 ??1_minbleicreport_owner@alglib@@UEAA@XZ
	 ??1_minbleicstate_owner@alglib@@UEAA@XZ
	 ??1_mincgreport_owner@alglib@@UEAA@XZ
	 ??1_mincgstate_owner@alglib@@UEAA@XZ
	 ??1_minlbfgsreport_owner@alglib@@UEAA@XZ
	 ??1_minlbfgsstate_owner@alglib@@UEAA@XZ
	 ??1_minlmreport_owner@alglib@@UEAA@XZ
	 ??1_minlmstate_owner@alglib@@UEAA@XZ
	 ??1_minnlcreport_owner@alglib@@UEAA@XZ
	 ??1_minnlcstate_owner@alglib@@UEAA@XZ
	 ??1_minnsreport_owner@alglib@@UEAA@XZ
	 ??1_minnsstate_owner@alglib@@UEAA@XZ
	 ??1_minqpreport_owner@alglib@@UEAA@XZ
	 ??1_minqpstate_owner@alglib@@UEAA@XZ
	 ??1ap_error@alglib@@QEAA@XZ
	 ??1minasareport@alglib@@UEAA@XZ
	 ??1minasastate@alglib@@UEAA@XZ
	 ??1minbleicreport@alglib@@UEAA@XZ
	 ??1minbleicstate@alglib@@UEAA@XZ
	 ??1mincgreport@alglib@@UEAA@XZ
	 ??1mincgstate@alglib@@UEAA@XZ
	 ??1minlbfgsreport@alglib@@UEAA@XZ
	 ??1minlbfgsstate@alglib@@UEAA@XZ
	 ??1minlmreport@alglib@@UEAA@XZ
	 ??1minlmstate@alglib@@UEAA@XZ
	 ??1minnlcreport@alglib@@UEAA@XZ
	 ??1minnlcstate@alglib@@UEAA@XZ
	 ??1minnsreport@alglib@@UEAA@XZ
	 ??1minnsstate@alglib@@UEAA@XZ
	 ??1minqpreport@alglib@@UEAA@XZ
	 ??1minqpstate@alglib@@UEAA@XZ
	 ??4_minasareport_owner@alglib@@QEAAAEAV01@AEBV01@@Z
	 ??4_minasastate_owner@alglib@@QEAAAEAV01@AEBV01@@Z
	 ??4_minbleicreport_owner@alglib@@QEAAAEAV01@AEBV01@@Z
	 ??4_minbleicstate_owner@alglib@@QEAAAEAV01@AEBV01@@Z
	 ??4_mincgreport_owner@alglib@@QEAAAEAV01@AEBV01@@Z
	 ??4_mincgstate_owner@alglib@@QEAAAEAV01@AEBV01@@Z
	 ??4_minlbfgsreport_owner@alglib@@QEAAAEAV01@AEBV01@@Z
	 ??4_minlbfgsstate_owner@alglib@@QEAAAEAV01@AEBV01@@Z
	 ??4_minlmreport_owner@alglib@@QEAAAEAV01@AEBV01@@Z
	 ??4_minlmstate_owner@alglib@@QEAAAEAV01@AEBV01@@Z
	 ??4_minnlcreport_owner@alglib@@QEAAAEAV01@AEBV01@@Z
	 ??4_minnlcstate_owner@alglib@@QEAAAEAV01@AEBV01@@Z
	 ??4_minnsreport_owner@alglib@@QEAAAEAV01@AEBV01@@Z
	 ??4_minnsstate_owner@alglib@@QEAAAEAV01@AEBV01@@Z
	 ??4_minqpreport_owner@alglib@@QEAAAEAV01@AEBV01@@Z
	 ??4_minqpstate_owner@alglib@@QEAAAEAV01@AEBV01@@Z
	 ??4minasareport@alglib@@QEAAAEAV01@AEBV01@@Z
	 ??4minasastate@alglib@@QEAAAEAV01@AEBV01@@Z
	 ??4minbleicreport@alglib@@QEAAAEAV01@AEBV01@@Z
	 ??4minbleicstate@alglib@@QEAAAEAV01@AEBV01@@Z
	 ??4mincgreport@alglib@@QEAAAEAV01@AEBV01@@Z
	 ??4mincgstate@alglib@@QEAAAEAV01@AEBV01@@Z
	 ??4minlbfgsreport@alglib@@QEAAAEAV01@AEBV01@@Z
	 ??4minlbfgsstate@alglib@@QEAAAEAV01@AEBV01@@Z
	 ??4minlmreport@alglib@@QEAAAEAV01@AEBV01@@Z
	 ??4minlmstate@alglib@@QEAAAEAV01@AEBV01@@Z
	 ??4minnlcreport@alglib@@QEAAAEAV01@AEBV01@@Z
	 ??4minnlcstate@alglib@@QEAAAEAV01@AEBV01@@Z
	 ??4minnsreport@alglib@@QEAAAEAV01@AEBV01@@Z
	 ??4minnsstate@alglib@@QEAAAEAV01@AEBV01@@Z
	 ??4minqpreport@alglib@@QEAAAEAV01@AEBV01@@Z
	 ??4minqpstate@alglib@@QEAAAEAV01@AEBV01@@Z
	 ?_convexquadraticmodel_clear@alglib_impl@@YAXPEAX@Z
	 ?_convexquadraticmodel_destroy@alglib_impl@@YAXPEAX@Z
	 ?_convexquadraticmodel_init@alglib_impl@@YAXPEAXPEAUae_state@1@@Z
	 ?_convexquadraticmodel_init_copy@alglib_impl@@YAXPEAX0PEAUae_state@1@@Z
	 ?_minasareport_clear@alglib_impl@@YAXPEAX@Z
	 ?_minasareport_destroy@alglib_impl@@YAXPEAX@Z
	 ?_minasareport_init@alglib_impl@@YAXPEAXPEAUae_state@1@@Z
	 ?_minasareport_init_copy@alglib_impl@@YAXPEAX0PEAUae_state@1@@Z
	 ?_minasastate_clear@alglib_impl@@YAXPEAX@Z
	 ?_minasastate_destroy@alglib_impl@@YAXPEAX@Z
	 ?_minasastate_init@alglib_impl@@YAXPEAXPEAUae_state@1@@Z
	 ?_minasastate_init_copy@alglib_impl@@YAXPEAX0PEAUae_state@1@@Z
	 ?_minbleicreport_clear@alglib_impl@@YAXPEAX@Z
	 ?_minbleicreport_destroy@alglib_impl@@YAXPEAX@Z
	 ?_minbleicreport_init@alglib_impl@@YAXPEAXPEAUae_state@1@@Z
	 ?_minbleicreport_init_copy@alglib_impl@@YAXPEAX0PEAUae_state@1@@Z
	 ?_minbleicstate_clear@alglib_impl@@YAXPEAX@Z
	 ?_minbleicstate_destroy@alglib_impl@@YAXPEAX@Z
	 ?_minbleicstate_init@alglib_impl@@YAXPEAXPEAUae_state@1@@Z
	 ?_minbleicstate_init_copy@alglib_impl@@YAXPEAX0PEAUae_state@1@@Z
	 ?_mincgreport_clear@alglib_impl@@YAXPEAX@Z
	 ?_mincgreport_destroy@alglib_impl@@YAXPEAX@Z
	 ?_mincgreport_init@alglib_impl@@YAXPEAXPEAUae_state@1@@Z
	 ?_mincgreport_init_copy@alglib_impl@@YAXPEAX0PEAUae_state@1@@Z
	 ?_mincgstate_clear@alglib_impl@@YAXPEAX@Z
	 ?_mincgstate_destroy@alglib_impl@@YAXPEAX@Z
	 ?_mincgstate_init@alglib_impl@@YAXPEAXPEAUae_state@1@@Z
	 ?_mincgstate_init_copy@alglib_impl@@YAXPEAX0PEAUae_state@1@@Z
	 ?_minlbfgsreport_clear@alglib_impl@@YAXPEAX@Z
	 ?_minlbfgsreport_destroy@alglib_impl@@YAXPEAX@Z
	 ?_minlbfgsreport_init@alglib_impl@@YAXPEAXPEAUae_state@1@@Z
	 ?_minlbfgsreport_init_copy@alglib_impl@@YAXPEAX0PEAUae_state@1@@Z
	 ?_minlbfgsstate_clear@alglib_impl@@YAXPEAX@Z
	 ?_minlbfgsstate_destroy@alglib_impl@@YAXPEAX@Z
	 ?_minlbfgsstate_init@alglib_impl@@YAXPEAXPEAUae_state@1@@Z
	 ?_minlbfgsstate_init_copy@alglib_impl@@YAXPEAX0PEAUae_state@1@@Z
	 ?_minlmreport_clear@alglib_impl@@YAXPEAX@Z
	 ?_minlmreport_destroy@alglib_impl@@YAXPEAX@Z
	 ?_minlmreport_init@alglib_impl@@YAXPEAXPEAUae_state@1@@Z
	 ?_minlmreport_init_copy@alglib_impl@@YAXPEAX0PEAUae_state@1@@Z
	 ?_minlmstate_clear@alglib_impl@@YAXPEAX@Z
	 ?_minlmstate_destroy@alglib_impl@@YAXPEAX@Z
	 ?_minlmstate_init@alglib_impl@@YAXPEAXPEAUae_state@1@@Z
	 ?_minlmstate_init_copy@alglib_impl@@YAXPEAX0PEAUae_state@1@@Z
	 ?_minnlcreport_clear@alglib_impl@@YAXPEAX@Z
	 ?_minnlcreport_destroy@alglib_impl@@YAXPEAX@Z
	 ?_minnlcreport_init@alglib_impl@@YAXPEAXPEAUae_state@1@@Z
	 ?_minnlcreport_init_copy@alglib_impl@@YAXPEAX0PEAUae_state@1@@Z
	 ?_minnlcstate_clear@alglib_impl@@YAXPEAX@Z
	 ?_minnlcstate_destroy@alglib_impl@@YAXPEAX@Z
	 ?_minnlcstate_init@alglib_impl@@YAXPEAXPEAUae_state@1@@Z
	 ?_minnlcstate_init_copy@alglib_impl@@YAXPEAX0PEAUae_state@1@@Z
	 ?_minnsqp_clear@alglib_impl@@YAXPEAX@Z
	 ?_minnsqp_destroy@alglib_impl@@YAXPEAX@Z
	 ?_minnsqp_init@alglib_impl@@YAXPEAXPEAUae_state@1@@Z
	 ?_minnsqp_init_copy@alglib_impl@@YAXPEAX0PEAUae_state@1@@Z
	 ?_minnsreport_clear@alglib_impl@@YAXPEAX@Z
	 ?_minnsreport_destroy@alglib_impl@@YAXPEAX@Z
	 ?_minnsreport_init@alglib_impl@@YAXPEAXPEAUae_state@1@@Z
	 ?_minnsreport_init_copy@alglib_impl@@YAXPEAX0PEAUae_state@1@@Z
	 ?_minnsstate_clear@alglib_impl@@YAXPEAX@Z
	 ?_minnsstate_destroy@alglib_impl@@YAXPEAX@Z
	 ?_minnsstate_init@alglib_impl@@YAXPEAXPEAUae_state@1@@Z
	 ?_minnsstate_init_copy@alglib_impl@@YAXPEAX0PEAUae_state@1@@Z
	 ?_minqpreport_clear@alglib_impl@@YAXPEAX@Z
	 ?_minqpreport_destroy@alglib_impl@@YAXPEAX@Z
	 ?_minqpreport_init@alglib_impl@@YAXPEAXPEAUae_state@1@@Z
	 ?_minqpreport_init_copy@alglib_impl@@YAXPEAX0PEAUae_state@1@@Z
	 ?_minqpstate_clear@alglib_impl@@YAXPEAX@Z
	 ?_minqpstate_destroy@alglib_impl@@YAXPEAX@Z
	 ?_minqpstate_init@alglib_impl@@YAXPEAXPEAUae_state@1@@Z
	 ?_minqpstate_init_copy@alglib_impl@@YAXPEAX0PEAUae_state@1@@Z
	 ?_precbuflbfgs_clear@alglib_impl@@YAXPEAX@Z
	 ?_precbuflbfgs_destroy@alglib_impl@@YAXPEAX@Z
	 ?_precbuflbfgs_init@alglib_impl@@YAXPEAXPEAUae_state@1@@Z
	 ?_precbuflbfgs_init_copy@alglib_impl@@YAXPEAX0PEAUae_state@1@@Z
	 ?_precbuflowrank_clear@alglib_impl@@YAXPEAX@Z
	 ?_precbuflowrank_destroy@alglib_impl@@YAXPEAX@Z
	 ?_precbuflowrank_init@alglib_impl@@YAXPEAXPEAUae_state@1@@Z
	 ?_precbuflowrank_init_copy@alglib_impl@@YAXPEAX0PEAUae_state@1@@Z
	 ?_qpbleicbuffers_clear@alglib_impl@@YAXPEAX@Z
	 ?_qpbleicbuffers_destroy@alglib_impl@@YAXPEAX@Z
	 ?_qpbleicbuffers_init@alglib_impl@@YAXPEAXPEAUae_state@1@@Z
	 ?_qpbleicbuffers_init_copy@alglib_impl@@YAXPEAX0PEAUae_state@1@@Z
	 ?_qpbleicsettings_clear@alglib_impl@@YAXPEAX@Z
	 ?_qpbleicsettings_destroy@alglib_impl@@YAXPEAX@Z
	 ?_qpbleicsettings_init@alglib_impl@@YAXPEAXPEAUae_state@1@@Z
	 ?_qpbleicsettings_init_copy@alglib_impl@@YAXPEAX0PEAUae_state@1@@Z
	 ?_qpcholeskybuffers_clear@alglib_impl@@YAXPEAX@Z
	 ?_qpcholeskybuffers_destroy@alglib_impl@@YAXPEAX@Z
	 ?_qpcholeskybuffers_init@alglib_impl@@YAXPEAXPEAUae_state@1@@Z
	 ?_qpcholeskybuffers_init_copy@alglib_impl@@YAXPEAX0PEAUae_state@1@@Z
	 ?_qpcholeskysettings_clear@alglib_impl@@YAXPEAX@Z
	 ?_qpcholeskysettings_destroy@alglib_impl@@YAXPEAX@Z
	 ?_qpcholeskysettings_init@alglib_impl@@YAXPEAXPEAUae_state@1@@Z
	 ?_qpcholeskysettings_init_copy@alglib_impl@@YAXPEAX0PEAUae_state@1@@Z
	 ?_qqpbuffers_clear@alglib_impl@@YAXPEAX@Z
	 ?_qqpbuffers_destroy@alglib_impl@@YAXPEAX@Z
	 ?_qqpbuffers_init@alglib_impl@@YAXPEAXPEAUae_state@1@@Z
	 ?_qqpbuffers_init_copy@alglib_impl@@YAXPEAX0PEAUae_state@1@@Z
	 ?_qqpsettings_clear@alglib_impl@@YAXPEAX@Z
	 ?_qqpsettings_destroy@alglib_impl@@YAXPEAX@Z
	 ?_qqpsettings_init@alglib_impl@@YAXPEAXPEAUae_state@1@@Z
	 ?_qqpsettings_init_copy@alglib_impl@@YAXPEAX0PEAUae_state@1@@Z
	 ?_sactiveset_clear@alglib_impl@@YAXPEAX@Z
	 ?_sactiveset_destroy@alglib_impl@@YAXPEAX@Z
	 ?_sactiveset_init@alglib_impl@@YAXPEAXPEAUae_state@1@@Z
	 ?_sactiveset_init_copy@alglib_impl@@YAXPEAX0PEAUae_state@1@@Z
	 ?_snnlssolver_clear@alglib_impl@@YAXPEAX@Z
	 ?_snnlssolver_destroy@alglib_impl@@YAXPEAX@Z
	 ?_snnlssolver_init@alglib_impl@@YAXPEAXPEAUae_state@1@@Z
	 ?_snnlssolver_init_copy@alglib_impl@@YAXPEAX0PEAUae_state@1@@Z
	 ?applylowrankpreconditioner@alglib_impl@@YAXPEAUae_vector@1@PEAUprecbuflowrank@1@PEAUae_state@1@@Z
	 ?c_ptr@_minasareport_owner@alglib@@QEAAPEAUminasareport@alglib_impl@@XZ
	 ?c_ptr@_minasareport_owner@alglib@@QEBAPEAUminasareport@alglib_impl@@XZ
	 ?c_ptr@_minasastate_owner@alglib@@QEAAPEAUminasastate@alglib_impl@@XZ
	 ?c_ptr@_minasastate_owner@alglib@@QEBAPEAUminasastate@alglib_impl@@XZ
	 ?c_ptr@_minbleicreport_owner@alglib@@QEAAPEAUminbleicreport@alglib_impl@@XZ
	 ?c_ptr@_minbleicreport_owner@alglib@@QEBAPEAUminbleicreport@alglib_impl@@XZ
	 ?c_ptr@_minbleicstate_owner@alglib@@QEAAPEAUminbleicstate@alglib_impl@@XZ
	 ?c_ptr@_minbleicstate_owner@alglib@@QEBAPEAUminbleicstate@alglib_impl@@XZ
	 ?c_ptr@_mincgreport_owner@alglib@@QEAAPEAUmincgreport@alglib_impl@@XZ
	 ?c_ptr@_mincgreport_owner@alglib@@QEBAPEAUmincgreport@alglib_impl@@XZ
	 ?c_ptr@_mincgstate_owner@alglib@@QEAAPEAUmincgstate@alglib_impl@@XZ
	 ?c_ptr@_mincgstate_owner@alglib@@QEBAPEAUmincgstate@alglib_impl@@XZ
	 ?c_ptr@_minlbfgsreport_owner@alglib@@QEAAPEAUminlbfgsreport@alglib_impl@@XZ
	 ?c_ptr@_minlbfgsreport_owner@alglib@@QEBAPEAUminlbfgsreport@alglib_impl@@XZ
	 ?c_ptr@_minlbfgsstate_owner@alglib@@QEAAPEAUminlbfgsstate@alglib_impl@@XZ
	 ?c_ptr@_minlbfgsstate_owner@alglib@@QEBAPEAUminlbfgsstate@alglib_impl@@XZ
	 ?c_ptr@_minlmreport_owner@alglib@@QEAAPEAUminlmreport@alglib_impl@@XZ
	 ?c_ptr@_minlmreport_owner@alglib@@QEBAPEAUminlmreport@alglib_impl@@XZ
	 ?c_ptr@_minlmstate_owner@alglib@@QEAAPEAUminlmstate@alglib_impl@@XZ
	 ?c_ptr@_minlmstate_owner@alglib@@QEBAPEAUminlmstate@alglib_impl@@XZ
	 ?c_ptr@_minnlcreport_owner@alglib@@QEAAPEAUminnlcreport@alglib_impl@@XZ
	 ?c_ptr@_minnlcreport_owner@alglib@@QEBAPEAUminnlcreport@alglib_impl@@XZ
	 ?c_ptr@_minnlcstate_owner@alglib@@QEAAPEAUminnlcstate@alglib_impl@@XZ
	 ?c_ptr@_minnlcstate_owner@alglib@@QEBAPEAUminnlcstate@alglib_impl@@XZ
	 ?c_ptr@_minnsreport_owner@alglib@@QEAAPEAUminnsreport@alglib_impl@@XZ
	 ?c_ptr@_minnsreport_owner@alglib@@QEBAPEAUminnsreport@alglib_impl@@XZ
	 ?c_ptr@_minnsstate_owner@alglib@@QEAAPEAUminnsstate@alglib_impl@@XZ
	 ?c_ptr@_minnsstate_owner@alglib@@QEBAPEAUminnsstate@alglib_impl@@XZ
	 ?c_ptr@_minqpreport_owner@alglib@@QEAAPEAUminqpreport@alglib_impl@@XZ
	 ?c_ptr@_minqpreport_owner@alglib@@QEBAPEAUminqpreport@alglib_impl@@XZ
	 ?c_ptr@_minqpstate_owner@alglib@@QEAAPEAUminqpstate@alglib_impl@@XZ
	 ?c_ptr@_minqpstate_owner@alglib@@QEBAPEAUminqpstate@alglib_impl@@XZ
	 ?calculatestepbound@alglib_impl@@YAXPEAUae_vector@1@0N0000_J1PEA_JPEAN3PEAUae_state@1@@Z
	 ?cqmadx@alglib_impl@@YAXPEAUconvexquadraticmodel@1@PEAUae_vector@1@1PEAUae_state@1@@Z
	 ?cqmconstrainedoptimum@alglib_impl@@YA_NPEAUconvexquadraticmodel@1@PEAUae_vector@1@PEAUae_state@1@@Z
	 ?cqmdebugconstrainedevale@alglib_impl@@YANPEAUconvexquadraticmodel@1@PEAUae_vector@1@PEAUae_state@1@@Z
	 ?cqmdebugconstrainedevalt@alglib_impl@@YANPEAUconvexquadraticmodel@1@PEAUae_vector@1@PEAUae_state@1@@Z
	 ?cqmdropa@alglib_impl@@YAXPEAUconvexquadraticmodel@1@PEAUae_state@1@@Z
	 ?cqmeval@alglib_impl@@YANPEAUconvexquadraticmodel@1@PEAUae_vector@1@PEAUae_state@1@@Z
	 ?cqmevalx@alglib_impl@@YAXPEAUconvexquadraticmodel@1@PEAUae_vector@1@PEAN2PEAUae_state@1@@Z
	 ?cqmgeta@alglib_impl@@YAXPEAUconvexquadraticmodel@1@PEAUae_matrix@1@PEAUae_state@1@@Z
	 ?cqmgradunconstrained@alglib_impl@@YAXPEAUconvexquadraticmodel@1@PEAUae_vector@1@1PEAUae_state@1@@Z
	 ?cqminit@alglib_impl@@YAX_JPEAUconvexquadraticmodel@1@PEAUae_state@1@@Z
	 ?cqmrewritedensediagonal@alglib_impl@@YAXPEAUconvexquadraticmodel@1@PEAUae_vector@1@PEAUae_state@1@@Z
	 ?cqmscalevector@alglib_impl@@YAXPEAUconvexquadraticmodel@1@PEAUae_vector@1@PEAUae_state@1@@Z
	 ?cqmseta@alglib_impl@@YAXPEAUconvexquadraticmodel@1@PEAUae_matrix@1@_NNPEAUae_state@1@@Z
	 ?cqmsetactiveset@alglib_impl@@YAXPEAUconvexquadraticmodel@1@PEAUae_vector@1@1PEAUae_state@1@@Z
	 ?cqmsetb@alglib_impl@@YAXPEAUconvexquadraticmodel@1@PEAUae_vector@1@PEAUae_state@1@@Z
	 ?cqmsetd@alglib_impl@@YAXPEAUconvexquadraticmodel@1@PEAUae_vector@1@NPEAUae_state@1@@Z
	 ?cqmsetq@alglib_impl@@YAXPEAUconvexquadraticmodel@1@PEAUae_matrix@1@PEAUae_vector@1@_JNPEAUae_state@1@@Z
	 ?cqmxtadx2@alglib_impl@@YANPEAUconvexquadraticmodel@1@PEAUae_vector@1@PEAUae_state@1@@Z
	 ?derivativecheck@alglib_impl@@YA_NNNNNNNNPEAUae_state@1@@Z
	 ?enforceboundaryconstraints@alglib_impl@@YA_NPEAUae_vector@1@0000_J1PEAUae_state@1@@Z
	 ?estimateparabolicmodel@alglib_impl@@YAXNNNNNNNPEA_J0PEAUae_state@1@@Z
	 ?filterdirection@alglib_impl@@YAXPEAUae_vector@1@000000_J1NPEAUae_state@1@@Z
	 ?findfeasiblepoint@alglib_impl@@YA_NPEAUae_vector@1@0000_J1PEAUae_matrix@1@1NPEA_J3PEAUae_state@1@@Z
	 ?inexactlbfgspreconditioner@alglib_impl@@YAXPEAUae_vector@1@_J00PEAUae_matrix@1@1PEAUprecbuflbfgs@1@PEAUae_state@1@@Z
	 ?minasacreate@alglib@@YAX_JAEBVreal_1d_array@1@11AEAVminasastate@1@@Z
	 ?minasacreate@alglib@@YAXAEBVreal_1d_array@1@00AEAVminasastate@1@@Z
	 ?minasacreate@alglib_impl@@YAX_JPEAUae_vector@1@11PEAUminasastate@1@PEAUae_state@1@@Z
	 ?minasaiteration@alglib@@YA_NAEBVminasastate@1@@Z
	 ?minasaiteration@alglib_impl@@YA_NPEAUminasastate@1@PEAUae_state@1@@Z
	 ?minasaoptimize@alglib@@YAXAEAVminasastate@1@P6AXAEBVreal_1d_array@1@AEANAEAV31@PEAX@ZP6AX1N4@Z4@Z
	 ?minasarestartfrom@alglib@@YAXAEBVminasastate@1@AEBVreal_1d_array@1@11@Z
	 ?minasarestartfrom@alglib_impl@@YAXPEAUminasastate@1@PEAUae_vector@1@11PEAUae_state@1@@Z
	 ?minasaresults@alglib@@YAXAEBVminasastate@1@AEAVreal_1d_array@1@AEAVminasareport@1@@Z
	 ?minasaresults@alglib_impl@@YAXPEAUminasastate@1@PEAUae_vector@1@PEAUminasareport@1@PEAUae_state@1@@Z
	 ?minasaresultsbuf@alglib@@YAXAEBVminasastate@1@AEAVreal_1d_array@1@AEAVminasareport@1@@Z
	 ?minasaresultsbuf@alglib_impl@@YAXPEAUminasastate@1@PEAUae_vector@1@PEAUminasareport@1@PEAUae_state@1@@Z
	 ?minasasetalgorithm@alglib@@YAXAEBVminasastate@1@_J@Z
	 ?minasasetalgorithm@alglib_impl@@YAXPEAUminasastate@1@_JPEAUae_state@1@@Z
	 ?minasasetcond@alglib@@YAXAEBVminasastate@1@NNN_J@Z
	 ?minasasetcond@alglib_impl@@YAXPEAUminasastate@1@NNN_JPEAUae_state@1@@Z
	 ?minasasetstpmax@alglib@@YAXAEBVminasastate@1@N@Z
	 ?minasasetstpmax@alglib_impl@@YAXPEAUminasastate@1@NPEAUae_state@1@@Z
	 ?minasasetxrep@alglib@@YAXAEBVminasastate@1@_N@Z
	 ?minasasetxrep@alglib_impl@@YAXPEAUminasastate@1@_NPEAUae_state@1@@Z
	 ?minbleiccreate@alglib@@YAX_JAEBVreal_1d_array@1@AEAVminbleicstate@1@@Z
	 ?minbleiccreate@alglib@@YAXAEBVreal_1d_array@1@AEAVminbleicstate@1@@Z
	 ?minbleiccreate@alglib_impl@@YAX_JPEAUae_vector@1@PEAUminbleicstate@1@PEAUae_state@1@@Z
	 ?minbleiccreatef@alglib@@YAX_JAEBVreal_1d_array@1@NAEAVminbleicstate@1@@Z
	 ?minbleiccreatef@alglib@@YAXAEBVreal_1d_array@1@NAEAVminbleicstate@1@@Z
	 ?minbleiccreatef@alglib_impl@@YAX_JPEAUae_vector@1@NPEAUminbleicstate@1@PEAUae_state@1@@Z
	 ?minbleicemergencytermination@alglib_impl@@YAXPEAUminbleicstate@1@PEAUae_state@1@@Z
	 ?minbleiciteration@alglib@@YA_NAEBVminbleicstate@1@@Z
	 ?minbleiciteration@alglib_impl@@YA_NPEAUminbleicstate@1@PEAUae_state@1@@Z
	 ?minbleicoptimize@alglib@@YAXAEAVminbleicstate@1@P6AXAEBVreal_1d_array@1@AEANAEAV31@PEAX@ZP6AX1N4@Z4@Z
	 ?minbleicoptimize@alglib@@YAXAEAVminbleicstate@1@P6AXAEBVreal_1d_array@1@AEANPEAX@ZP6AX1N3@Z3@Z
	 ?minbleicrequesttermination@alglib@@YAXAEBVminbleicstate@1@@Z
	 ?minbleicrequesttermination@alglib_impl@@YAXPEAUminbleicstate@1@PEAUae_state@1@@Z
	 ?minbleicrestartfrom@alglib@@YAXAEBVminbleicstate@1@AEBVreal_1d_array@1@@Z
	 ?minbleicrestartfrom@alglib_impl@@YAXPEAUminbleicstate@1@PEAUae_vector@1@PEAUae_state@1@@Z
	 ?minbleicresults@alglib@@YAXAEBVminbleicstate@1@AEAVreal_1d_array@1@AEAVminbleicreport@1@@Z
	 ?minbleicresults@alglib_impl@@YAXPEAUminbleicstate@1@PEAUae_vector@1@PEAUminbleicreport@1@PEAUae_state@1@@Z
	 ?minbleicresultsbuf@alglib@@YAXAEBVminbleicstate@1@AEAVreal_1d_array@1@AEAVminbleicreport@1@@Z
	 ?minbleicresultsbuf@alglib_impl@@YAXPEAUminbleicstate@1@PEAUae_vector@1@PEAUminbleicreport@1@PEAUae_state@1@@Z
	 ?minbleicsetbarrierdecay@alglib@@YAXAEBVminbleicstate@1@N@Z
	 ?minbleicsetbarrierdecay@alglib_impl@@YAXPEAUminbleicstate@1@NPEAUae_state@1@@Z
	 ?minbleicsetbarrierwidth@alglib@@YAXAEBVminbleicstate@1@N@Z
	 ?minbleicsetbarrierwidth@alglib_impl@@YAXPEAUminbleicstate@1@NPEAUae_state@1@@Z
	 ?minbleicsetbc@alglib@@YAXAEBVminbleicstate@1@AEBVreal_1d_array@1@1@Z
	 ?minbleicsetbc@alglib_impl@@YAXPEAUminbleicstate@1@PEAUae_vector@1@1PEAUae_state@1@@Z
	 ?minbleicsetcond@alglib@@YAXAEBVminbleicstate@1@NNN_J@Z
	 ?minbleicsetcond@alglib_impl@@YAXPEAUminbleicstate@1@NNN_JPEAUae_state@1@@Z
	 ?minbleicsetdrep@alglib_impl@@YAXPEAUminbleicstate@1@_NPEAUae_state@1@@Z
	 ?minbleicsetgradientcheck@alglib@@YAXAEBVminbleicstate@1@N@Z
	 ?minbleicsetgradientcheck@alglib_impl@@YAXPEAUminbleicstate@1@NPEAUae_state@1@@Z
	 ?minbleicsetlc@alglib@@YAXAEBVminbleicstate@1@AEBVreal_2d_array@1@AEBVinteger_1d_array@1@@Z
	 ?minbleicsetlc@alglib@@YAXAEBVminbleicstate@1@AEBVreal_2d_array@1@AEBVinteger_1d_array@1@_J@Z
	 ?minbleicsetlc@alglib_impl@@YAXPEAUminbleicstate@1@PEAUae_matrix@1@PEAUae_vector@1@_JPEAUae_state@1@@Z
	 ?minbleicsetprecdefault@alglib@@YAXAEBVminbleicstate@1@@Z
	 ?minbleicsetprecdefault@alglib_impl@@YAXPEAUminbleicstate@1@PEAUae_state@1@@Z
	 ?minbleicsetprecdiag@alglib@@YAXAEBVminbleicstate@1@AEBVreal_1d_array@1@@Z
	 ?minbleicsetprecdiag@alglib_impl@@YAXPEAUminbleicstate@1@PEAUae_vector@1@PEAUae_state@1@@Z
	 ?minbleicsetprecscale@alglib@@YAXAEBVminbleicstate@1@@Z
	 ?minbleicsetprecscale@alglib_impl@@YAXPEAUminbleicstate@1@PEAUae_state@1@@Z
	 ?minbleicsetscale@alglib@@YAXAEBVminbleicstate@1@AEBVreal_1d_array@1@@Z
	 ?minbleicsetscale@alglib_impl@@YAXPEAUminbleicstate@1@PEAUae_vector@1@PEAUae_state@1@@Z
	 ?minbleicsetstpmax@alglib@@YAXAEBVminbleicstate@1@N@Z
	 ?minbleicsetstpmax@alglib_impl@@YAXPEAUminbleicstate@1@NPEAUae_state@1@@Z
	 ?minbleicsetxrep@alglib@@YAXAEBVminbleicstate@1@_N@Z
	 ?minbleicsetxrep@alglib_impl@@YAXPEAUminbleicstate@1@_NPEAUae_state@1@@Z
	 ?mincgcreate@alglib@@YAX_JAEBVreal_1d_array@1@AEAVmincgstate@1@@Z
	 ?mincgcreate@alglib@@YAXAEBVreal_1d_array@1@AEAVmincgstate@1@@Z
	 ?mincgcreate@alglib_impl@@YAX_JPEAUae_vector@1@PEAUmincgstate@1@PEAUae_state@1@@Z
	 ?mincgcreatef@alglib@@YAX_JAEBVreal_1d_array@1@NAEAVmincgstate@1@@Z
	 ?mincgcreatef@alglib@@YAXAEBVreal_1d_array@1@NAEAVmincgstate@1@@Z
	 ?mincgcreatef@alglib_impl@@YAX_JPEAUae_vector@1@NPEAUmincgstate@1@PEAUae_state@1@@Z
	 ?mincgiteration@alglib@@YA_NAEBVmincgstate@1@@Z
	 ?mincgiteration@alglib_impl@@YA_NPEAUmincgstate@1@PEAUae_state@1@@Z
	 ?mincglastgoodstep@alglib_impl@@YANPEAUmincgstate@1@PEAUae_state@1@@Z
	 ?mincgoptimize@alglib@@YAXAEAVmincgstate@1@P6AXAEBVreal_1d_array@1@AEANAEAV31@PEAX@ZP6AX1N4@Z4@Z
	 ?mincgoptimize@alglib@@YAXAEAVmincgstate@1@P6AXAEBVreal_1d_array@1@AEANPEAX@ZP6AX1N3@Z3@Z
	 ?mincgrequesttermination@alglib@@YAXAEBVmincgstate@1@@Z
	 ?mincgrequesttermination@alglib_impl@@YAXPEAUmincgstate@1@PEAUae_state@1@@Z
	 ?mincgrestartfrom@alglib@@YAXAEBVmincgstate@1@AEBVreal_1d_array@1@@Z
	 ?mincgrestartfrom@alglib_impl@@YAXPEAUmincgstate@1@PEAUae_vector@1@PEAUae_state@1@@Z
	 ?mincgresults@alglib@@YAXAEBVmincgstate@1@AEAVreal_1d_array@1@AEAVmincgreport@1@@Z
	 ?mincgresults@alglib_impl@@YAXPEAUmincgstate@1@PEAUae_vector@1@PEAUmincgreport@1@PEAUae_state@1@@Z
	 ?mincgresultsbuf@alglib@@YAXAEBVmincgstate@1@AEAVreal_1d_array@1@AEAVmincgreport@1@@Z
	 ?mincgresultsbuf@alglib_impl@@YAXPEAUmincgstate@1@PEAUae_vector@1@PEAUmincgreport@1@PEAUae_state@1@@Z
	 ?mincgsetcgtype@alglib@@YAXAEBVmincgstate@1@_J@Z
	 ?mincgsetcgtype@alglib_impl@@YAXPEAUmincgstate@1@_JPEAUae_state@1@@Z
	 ?mincgsetcond@alglib@@YAXAEBVmincgstate@1@NNN_J@Z
	 ?mincgsetcond@alglib_impl@@YAXPEAUmincgstate@1@NNN_JPEAUae_state@1@@Z
	 ?mincgsetdrep@alglib_impl@@YAXPEAUmincgstate@1@_NPEAUae_state@1@@Z
	 ?mincgsetgradientcheck@alglib@@YAXAEBVmincgstate@1@N@Z
	 ?mincgsetgradientcheck@alglib_impl@@YAXPEAUmincgstate@1@NPEAUae_state@1@@Z
	 ?mincgsetprecdefault@alglib@@YAXAEBVmincgstate@1@@Z
	 ?mincgsetprecdefault@alglib_impl@@YAXPEAUmincgstate@1@PEAUae_state@1@@Z
	 ?mincgsetprecdiag@alglib@@YAXAEBVmincgstate@1@AEBVreal_1d_array@1@@Z
	 ?mincgsetprecdiag@alglib_impl@@YAXPEAUmincgstate@1@PEAUae_vector@1@PEAUae_state@1@@Z
	 ?mincgsetprecdiagfast@alglib_impl@@YAXPEAUmincgstate@1@PEAUae_vector@1@PEAUae_state@1@@Z
	 ?mincgsetpreclowrankfast@alglib_impl@@YAXPEAUmincgstate@1@PEAUae_vector@1@1PEAUae_matrix@1@_JPEAUae_state@1@@Z
	 ?mincgsetprecscale@alglib@@YAXAEBVmincgstate@1@@Z
	 ?mincgsetprecscale@alglib_impl@@YAXPEAUmincgstate@1@PEAUae_state@1@@Z
	 ?mincgsetprecvarpart@alglib_impl@@YAXPEAUmincgstate@1@PEAUae_vector@1@PEAUae_state@1@@Z
	 ?mincgsetscale@alglib@@YAXAEBVmincgstate@1@AEBVreal_1d_array@1@@Z
	 ?mincgsetscale@alglib_impl@@YAXPEAUmincgstate@1@PEAUae_vector@1@PEAUae_state@1@@Z
	 ?mincgsetstpmax@alglib@@YAXAEBVmincgstate@1@N@Z
	 ?mincgsetstpmax@alglib_impl@@YAXPEAUmincgstate@1@NPEAUae_state@1@@Z
	 ?mincgsetxrep@alglib@@YAXAEBVmincgstate@1@_N@Z
	 ?mincgsetxrep@alglib_impl@@YAXPEAUmincgstate@1@_NPEAUae_state@1@@Z
	 ?mincgsuggeststep@alglib@@YAXAEBVmincgstate@1@N@Z
	 ?mincgsuggeststep@alglib_impl@@YAXPEAUmincgstate@1@NPEAUae_state@1@@Z
	 ?minlbfgscreate@alglib@@YAX_J0AEBVreal_1d_array@1@AEAVminlbfgsstate@1@@Z
	 ?minlbfgscreate@alglib@@YAX_JAEBVreal_1d_array@1@AEAVminlbfgsstate@1@@Z
	 ?minlbfgscreate@alglib_impl@@YAX_J0PEAUae_vector@1@PEAUminlbfgsstate@1@PEAUae_state@1@@Z
	 ?minlbfgscreatef@alglib@@YAX_J0AEBVreal_1d_array@1@NAEAVminlbfgsstate@1@@Z
	 ?minlbfgscreatef@alglib@@YAX_JAEBVreal_1d_array@1@NAEAVminlbfgsstate@1@@Z
	 ?minlbfgscreatef@alglib_impl@@YAX_J0PEAUae_vector@1@NPEAUminlbfgsstate@1@PEAUae_state@1@@Z
	 ?minlbfgscreatex@alglib_impl@@YAX_J0PEAUae_vector@1@0NPEAUminlbfgsstate@1@PEAUae_state@1@@Z
	 ?minlbfgsiteration@alglib@@YA_NAEBVminlbfgsstate@1@@Z
	 ?minlbfgsiteration@alglib_impl@@YA_NPEAUminlbfgsstate@1@PEAUae_state@1@@Z
	 ?minlbfgsoptimize@alglib@@YAXAEAVminlbfgsstate@1@P6AXAEBVreal_1d_array@1@AEANAEAV31@PEAX@ZP6AX1N4@Z4@Z
	 ?minlbfgsoptimize@alglib@@YAXAEAVminlbfgsstate@1@P6AXAEBVreal_1d_array@1@AEANPEAX@ZP6AX1N3@Z3@Z
	 ?minlbfgsrequesttermination@alglib@@YAXAEBVminlbfgsstate@1@@Z
	 ?minlbfgsrequesttermination@alglib_impl@@YAXPEAUminlbfgsstate@1@PEAUae_state@1@@Z
	 ?minlbfgsrestartfrom@alglib@@YAXAEBVminlbfgsstate@1@AEBVreal_1d_array@1@@Z
	 ?minlbfgsrestartfrom@alglib_impl@@YAXPEAUminlbfgsstate@1@PEAUae_vector@1@PEAUae_state@1@@Z
	 ?minlbfgsresults@alglib@@YAXAEBVminlbfgsstate@1@AEAVreal_1d_array@1@AEAVminlbfgsreport@1@@Z
	 ?minlbfgsresults@alglib_impl@@YAXPEAUminlbfgsstate@1@PEAUae_vector@1@PEAUminlbfgsreport@1@PEAUae_state@1@@Z
	 ?minlbfgsresultsbuf@alglib@@YAXAEBVminlbfgsstate@1@AEAVreal_1d_array@1@AEAVminlbfgsreport@1@@Z
	 ?minlbfgsresultsbuf@alglib_impl@@YAXPEAUminlbfgsstate@1@PEAUae_vector@1@PEAUminlbfgsreport@1@PEAUae_state@1@@Z
	 ?minlbfgssetcholeskypreconditioner@alglib@@YAXAEBVminlbfgsstate@1@AEBVreal_2d_array@1@_N@Z
	 ?minlbfgssetcholeskypreconditioner@alglib_impl@@YAXPEAUminlbfgsstate@1@PEAUae_matrix@1@_NPEAUae_state@1@@Z
	 ?minlbfgssetcond@alglib@@YAXAEBVminlbfgsstate@1@NNN_J@Z
	 ?minlbfgssetcond@alglib_impl@@YAXPEAUminlbfgsstate@1@NNN_JPEAUae_state@1@@Z
	 ?minlbfgssetdefaultpreconditioner@alglib@@YAXAEBVminlbfgsstate@1@@Z
	 ?minlbfgssetdefaultpreconditioner@alglib_impl@@YAXPEAUminlbfgsstate@1@PEAUae_state@1@@Z
	 ?minlbfgssetgradientcheck@alglib@@YAXAEBVminlbfgsstate@1@N@Z
	 ?minlbfgssetgradientcheck@alglib_impl@@YAXPEAUminlbfgsstate@1@NPEAUae_state@1@@Z
	 ?minlbfgssetpreccholesky@alglib@@YAXAEBVminlbfgsstate@1@AEBVreal_2d_array@1@_N@Z
	 ?minlbfgssetpreccholesky@alglib_impl@@YAXPEAUminlbfgsstate@1@PEAUae_matrix@1@_NPEAUae_state@1@@Z
	 ?minlbfgssetprecdefault@alglib@@YAXAEBVminlbfgsstate@1@@Z
	 ?minlbfgssetprecdefault@alglib_impl@@YAXPEAUminlbfgsstate@1@PEAUae_state@1@@Z
	 ?minlbfgssetprecdiag@alglib@@YAXAEBVminlbfgsstate@1@AEBVreal_1d_array@1@@Z
	 ?minlbfgssetprecdiag@alglib_impl@@YAXPEAUminlbfgsstate@1@PEAUae_vector@1@PEAUae_state@1@@Z
	 ?minlbfgssetpreclowrankexact@alglib_impl@@YAXPEAUminlbfgsstate@1@PEAUae_vector@1@1PEAUae_matrix@1@_JPEAUae_state@1@@Z
	 ?minlbfgssetprecrankklbfgsfast@alglib_impl@@YAXPEAUminlbfgsstate@1@PEAUae_vector@1@1PEAUae_matrix@1@_JPEAUae_state@1@@Z
	 ?minlbfgssetprecscale@alglib@@YAXAEBVminlbfgsstate@1@@Z
	 ?minlbfgssetprecscale@alglib_impl@@YAXPEAUminlbfgsstate@1@PEAUae_state@1@@Z
	 ?minlbfgssetscale@alglib@@YAXAEBVminlbfgsstate@1@AEBVreal_1d_array@1@@Z
	 ?minlbfgssetscale@alglib_impl@@YAXPEAUminlbfgsstate@1@PEAUae_vector@1@PEAUae_state@1@@Z
	 ?minlbfgssetstpmax@alglib@@YAXAEBVminlbfgsstate@1@N@Z
	 ?minlbfgssetstpmax@alglib_impl@@YAXPEAUminlbfgsstate@1@NPEAUae_state@1@@Z
	 ?minlbfgssetxrep@alglib@@YAXAEBVminlbfgsstate@1@_N@Z
	 ?minlbfgssetxrep@alglib_impl@@YAXPEAUminlbfgsstate@1@_NPEAUae_state@1@@Z
	 ?minlmcreatefgh@alglib@@YAX_JAEBVreal_1d_array@1@AEAVminlmstate@1@@Z
	 ?minlmcreatefgh@alglib@@YAXAEBVreal_1d_array@1@AEAVminlmstate@1@@Z
	 ?minlmcreatefgh@alglib_impl@@YAX_JPEAUae_vector@1@PEAUminlmstate@1@PEAUae_state@1@@Z
	 ?minlmcreatefgj@alglib@@YAX_J0AEBVreal_1d_array@1@AEAVminlmstate@1@@Z
	 ?minlmcreatefgj@alglib@@YAX_JAEBVreal_1d_array@1@AEAVminlmstate@1@@Z
	 ?minlmcreatefgj@alglib_impl@@YAX_J0PEAUae_vector@1@PEAUminlmstate@1@PEAUae_state@1@@Z
	 ?minlmcreatefj@alglib@@YAX_J0AEBVreal_1d_array@1@AEAVminlmstate@1@@Z
	 ?minlmcreatefj@alglib@@YAX_JAEBVreal_1d_array@1@AEAVminlmstate@1@@Z
	 ?minlmcreatefj@alglib_impl@@YAX_J0PEAUae_vector@1@PEAUminlmstate@1@PEAUae_state@1@@Z
	 ?minlmcreatev@alglib@@YAX_J0AEBVreal_1d_array@1@NAEAVminlmstate@1@@Z
	 ?minlmcreatev@alglib@@YAX_JAEBVreal_1d_array@1@NAEAVminlmstate@1@@Z
	 ?minlmcreatev@alglib_impl@@YAX_J0PEAUae_vector@1@NPEAUminlmstate@1@PEAUae_state@1@@Z
	 ?minlmcreatevgj@alglib@@YAX_J0AEBVreal_1d_array@1@AEAVminlmstate@1@@Z
	 ?minlmcreatevgj@alglib@@YAX_JAEBVreal_1d_array@1@AEAVminlmstate@1@@Z
	 ?minlmcreatevgj@alglib_impl@@YAX_J0PEAUae_vector@1@PEAUminlmstate@1@PEAUae_state@1@@Z
	 ?minlmcreatevj@alglib@@YAX_J0AEBVreal_1d_array@1@AEAVminlmstate@1@@Z
	 ?minlmcreatevj@alglib@@YAX_JAEBVreal_1d_array@1@AEAVminlmstate@1@@Z
	 ?minlmcreatevj@alglib_impl@@YAX_J0PEAUae_vector@1@PEAUminlmstate@1@PEAUae_state@1@@Z
	 ?minlmiteration@alglib@@YA_NAEBVminlmstate@1@@Z
	 ?minlmiteration@alglib_impl@@YA_NPEAUminlmstate@1@PEAUae_state@1@@Z
	 ?minlmoptimize@alglib@@YAXAEAVminlmstate@1@P6AXAEBVreal_1d_array@1@AEANPEAX@ZP6AX12AEAV31@3@ZP6AX125AEAVreal_2d_array@1@3@ZP6AX1N3@Z3@Z
	 ?minlmoptimize@alglib@@YAXAEAVminlmstate@1@P6AXAEBVreal_1d_array@1@AEANPEAX@ZP6AX12AEAV31@3@ZP6AX15AEAVreal_2d_array@1@3@ZP6AX1N3@Z3@Z
	 ?minlmoptimize@alglib@@YAXAEAVminlmstate@1@P6AXAEBVreal_1d_array@1@AEANPEAX@ZP6AX1AEAV31@AEAVreal_2d_array@1@3@ZP6AX1N3@Z3@Z
	 ?minlmoptimize@alglib@@YAXAEAVminlmstate@1@P6AXAEBVreal_1d_array@1@AEAV31@PEAX@ZP6AX12AEAVreal_2d_array@1@3@ZP6AX1N3@Z3@Z
	 ?minlmoptimize@alglib@@YAXAEAVminlmstate@1@P6AXAEBVreal_1d_array@1@AEAV31@PEAX@ZP6AX1N3@Z3@Z
	 ?minlmrequesttermination@alglib@@YAXAEBVminlmstate@1@@Z
	 ?minlmrequesttermination@alglib_impl@@YAXPEAUminlmstate@1@PEAUae_state@1@@Z
	 ?minlmrestartfrom@alglib@@YAXAEBVminlmstate@1@AEBVreal_1d_array@1@@Z
	 ?minlmrestartfrom@alglib_impl@@YAXPEAUminlmstate@1@PEAUae_vector@1@PEAUae_state@1@@Z
	 ?minlmresults@alglib@@YAXAEBVminlmstate@1@AEAVreal_1d_array@1@AEAVminlmreport@1@@Z
	 ?minlmresults@alglib_impl@@YAXPEAUminlmstate@1@PEAUae_vector@1@PEAUminlmreport@1@PEAUae_state@1@@Z
	 ?minlmresultsbuf@alglib@@YAXAEBVminlmstate@1@AEAVreal_1d_array@1@AEAVminlmreport@1@@Z
	 ?minlmresultsbuf@alglib_impl@@YAXPEAUminlmstate@1@PEAUae_vector@1@PEAUminlmreport@1@PEAUae_state@1@@Z
	 ?minlmsetacctype@alglib@@YAXAEBVminlmstate@1@_J@Z
	 ?minlmsetacctype@alglib_impl@@YAXPEAUminlmstate@1@_JPEAUae_state@1@@Z
	 ?minlmsetbc@alglib@@YAXAEBVminlmstate@1@AEBVreal_1d_array@1@1@Z
	 ?minlmsetbc@alglib_impl@@YAXPEAUminlmstate@1@PEAUae_vector@1@1PEAUae_state@1@@Z
	 ?minlmsetcond@alglib@@YAXAEBVminlmstate@1@NNN_J@Z
	 ?minlmsetcond@alglib_impl@@YAXPEAUminlmstate@1@NNN_JPEAUae_state@1@@Z
	 ?minlmsetgradientcheck@alglib@@YAXAEBVminlmstate@1@N@Z
	 ?minlmsetgradientcheck@alglib_impl@@YAXPEAUminlmstate@1@NPEAUae_state@1@@Z
	 ?minlmsetscale@alglib@@YAXAEBVminlmstate@1@AEBVreal_1d_array@1@@Z
	 ?minlmsetscale@alglib_impl@@YAXPEAUminlmstate@1@PEAUae_vector@1@PEAUae_state@1@@Z
	 ?minlmsetstpmax@alglib@@YAXAEBVminlmstate@1@N@Z
	 ?minlmsetstpmax@alglib_impl@@YAXPEAUminlmstate@1@NPEAUae_state@1@@Z
	 ?minlmsetxrep@alglib@@YAXAEBVminlmstate@1@_N@Z
	 ?minlmsetxrep@alglib_impl@@YAXPEAUminlmstate@1@_NPEAUae_state@1@@Z
	 ?minnlccreate@alglib@@YAX_JAEBVreal_1d_array@1@AEAVminnlcstate@1@@Z
	 ?minnlccreate@alglib@@YAXAEBVreal_1d_array@1@AEAVminnlcstate@1@@Z
	 ?minnlccreate@alglib_impl@@YAX_JPEAUae_vector@1@PEAUminnlcstate@1@PEAUae_state@1@@Z
	 ?minnlccreatef@alglib@@YAX_JAEBVreal_1d_array@1@NAEAVminnlcstate@1@@Z
	 ?minnlccreatef@alglib@@YAXAEBVreal_1d_array@1@NAEAVminnlcstate@1@@Z
	 ?minnlccreatef@alglib_impl@@YAX_JPEAUae_vector@1@NPEAUminnlcstate@1@PEAUae_state@1@@Z
	 ?minnlcequalitypenaltyfunction@alglib_impl@@YAXNPEAN00PEAUae_state@1@@Z
	 ?minnlcinequalitypenaltyfunction@alglib_impl@@YAXNNPEAN00PEAUae_state@1@@Z
	 ?minnlcinequalityshiftfunction@alglib_impl@@YAXNPEAN00PEAUae_state@1@@Z
	 ?minnlciteration@alglib@@YA_NAEBVminnlcstate@1@@Z
	 ?minnlciteration@alglib_impl@@YA_NPEAUminnlcstate@1@PEAUae_state@1@@Z
	 ?minnlcoptimize@alglib@@YAXAEAVminnlcstate@1@P6AXAEBVreal_1d_array@1@AEAV31@AEAVreal_2d_array@1@PEAX@ZP6AX1N4@Z4@Z
	 ?minnlcoptimize@alglib@@YAXAEAVminnlcstate@1@P6AXAEBVreal_1d_array@1@AEAV31@PEAX@ZP6AX1N3@Z3@Z
	 ?minnlcrestartfrom@alglib@@YAXAEBVminnlcstate@1@AEBVreal_1d_array@1@@Z
	 ?minnlcrestartfrom@alglib_impl@@YAXPEAUminnlcstate@1@PEAUae_vector@1@PEAUae_state@1@@Z
	 ?minnlcresults@alglib@@YAXAEBVminnlcstate@1@AEAVreal_1d_array@1@AEAVminnlcreport@1@@Z
	 ?minnlcresults@alglib_impl@@YAXPEAUminnlcstate@1@PEAUae_vector@1@PEAUminnlcreport@1@PEAUae_state@1@@Z
	 ?minnlcresultsbuf@alglib@@YAXAEBVminnlcstate@1@AEAVreal_1d_array@1@AEAVminnlcreport@1@@Z
	 ?minnlcresultsbuf@alglib_impl@@YAXPEAUminnlcstate@1@PEAUae_vector@1@PEAUminnlcreport@1@PEAUae_state@1@@Z
	 ?minnlcsetalgoaul@alglib@@YAXAEBVminnlcstate@1@N_J@Z
	 ?minnlcsetalgoaul@alglib_impl@@YAXPEAUminnlcstate@1@N_JPEAUae_state@1@@Z
	 ?minnlcsetbc@alglib@@YAXAEBVminnlcstate@1@AEBVreal_1d_array@1@1@Z
	 ?minnlcsetbc@alglib_impl@@YAXPEAUminnlcstate@1@PEAUae_vector@1@1PEAUae_state@1@@Z
	 ?minnlcsetcond@alglib@@YAXAEBVminnlcstate@1@NNN_J@Z
	 ?minnlcsetcond@alglib_impl@@YAXPEAUminnlcstate@1@NNN_JPEAUae_state@1@@Z
	 ?minnlcsetgradientcheck@alglib@@YAXAEBVminnlcstate@1@N@Z
	 ?minnlcsetgradientcheck@alglib_impl@@YAXPEAUminnlcstate@1@NPEAUae_state@1@@Z
	 ?minnlcsetlc@alglib@@YAXAEBVminnlcstate@1@AEBVreal_2d_array@1@AEBVinteger_1d_array@1@@Z
	 ?minnlcsetlc@alglib@@YAXAEBVminnlcstate@1@AEBVreal_2d_array@1@AEBVinteger_1d_array@1@_J@Z
	 ?minnlcsetlc@alglib_impl@@YAXPEAUminnlcstate@1@PEAUae_matrix@1@PEAUae_vector@1@_JPEAUae_state@1@@Z
	 ?minnlcsetnlc@alglib@@YAXAEBVminnlcstate@1@_J1@Z
	 ?minnlcsetnlc@alglib_impl@@YAXPEAUminnlcstate@1@_J1PEAUae_state@1@@Z
	 ?minnlcsetprecexactlowrank@alglib@@YAXAEBVminnlcstate@1@_J@Z
	 ?minnlcsetprecexactlowrank@alglib_impl@@YAXPEAUminnlcstate@1@_JPEAUae_state@1@@Z
	 ?minnlcsetprecinexact@alglib@@YAXAEBVminnlcstate@1@@Z
	 ?minnlcsetprecinexact@alglib_impl@@YAXPEAUminnlcstate@1@PEAUae_state@1@@Z
	 ?minnlcsetprecnone@alglib@@YAXAEBVminnlcstate@1@@Z
	 ?minnlcsetprecnone@alglib_impl@@YAXPEAUminnlcstate@1@PEAUae_state@1@@Z
	 ?minnlcsetscale@alglib@@YAXAEBVminnlcstate@1@AEBVreal_1d_array@1@@Z
	 ?minnlcsetscale@alglib_impl@@YAXPEAUminnlcstate@1@PEAUae_vector@1@PEAUae_state@1@@Z
	 ?minnlcsetxrep@alglib@@YAXAEBVminnlcstate@1@_N@Z
	 ?minnlcsetxrep@alglib_impl@@YAXPEAUminnlcstate@1@_NPEAUae_state@1@@Z
	 ?minnscreate@alglib@@YAX_JAEBVreal_1d_array@1@AEAVminnsstate@1@@Z
	 ?minnscreate@alglib@@YAXAEBVreal_1d_array@1@AEAVminnsstate@1@@Z
	 ?minnscreate@alglib_impl@@YAX_JPEAUae_vector@1@PEAUminnsstate@1@PEAUae_state@1@@Z
	 ?minnscreatef@alglib@@YAX_JAEBVreal_1d_array@1@NAEAVminnsstate@1@@Z
	 ?minnscreatef@alglib@@YAXAEBVreal_1d_array@1@NAEAVminnsstate@1@@Z
	 ?minnscreatef@alglib_impl@@YAX_JPEAUae_vector@1@NPEAUminnsstate@1@PEAUae_state@1@@Z
	 ?minnsiteration@alglib@@YA_NAEBVminnsstate@1@@Z
	 ?minnsiteration@alglib_impl@@YA_NPEAUminnsstate@1@PEAUae_state@1@@Z
	 ?minnsoptimize@alglib@@YAXAEAVminnsstate@1@P6AXAEBVreal_1d_array@1@AEAV31@AEAVreal_2d_array@1@PEAX@ZP6AX1N4@Z4@Z
	 ?minnsoptimize@alglib@@YAXAEAVminnsstate@1@P6AXAEBVreal_1d_array@1@AEAV31@PEAX@ZP6AX1N3@Z3@Z
	 ?minnsrequesttermination@alglib@@YAXAEBVminnsstate@1@@Z
	 ?minnsrequesttermination@alglib_impl@@YAXPEAUminnsstate@1@PEAUae_state@1@@Z
	 ?minnsrestartfrom@alglib@@YAXAEBVminnsstate@1@AEBVreal_1d_array@1@@Z
	 ?minnsrestartfrom@alglib_impl@@YAXPEAUminnsstate@1@PEAUae_vector@1@PEAUae_state@1@@Z
	 ?minnsresults@alglib@@YAXAEBVminnsstate@1@AEAVreal_1d_array@1@AEAVminnsreport@1@@Z
	 ?minnsresults@alglib_impl@@YAXPEAUminnsstate@1@PEAUae_vector@1@PEAUminnsreport@1@PEAUae_state@1@@Z
	 ?minnsresultsbuf@alglib@@YAXAEBVminnsstate@1@AEAVreal_1d_array@1@AEAVminnsreport@1@@Z
	 ?minnsresultsbuf@alglib_impl@@YAXPEAUminnsstate@1@PEAUae_vector@1@PEAUminnsreport@1@PEAUae_state@1@@Z
	 ?minnssetalgoags@alglib@@YAXAEBVminnsstate@1@NN@Z
	 ?minnssetalgoags@alglib_impl@@YAXPEAUminnsstate@1@NNPEAUae_state@1@@Z
	 ?minnssetbc@alglib@@YAXAEBVminnsstate@1@AEBVreal_1d_array@1@1@Z
	 ?minnssetbc@alglib_impl@@YAXPEAUminnsstate@1@PEAUae_vector@1@1PEAUae_state@1@@Z
	 ?minnssetcond@alglib@@YAXAEBVminnsstate@1@N_J@Z
	 ?minnssetcond@alglib_impl@@YAXPEAUminnsstate@1@N_JPEAUae_state@1@@Z
	 ?minnssetlc@alglib@@YAXAEBVminnsstate@1@AEBVreal_2d_array@1@AEBVinteger_1d_array@1@@Z
	 ?minnssetlc@alglib@@YAXAEBVminnsstate@1@AEBVreal_2d_array@1@AEBVinteger_1d_array@1@_J@Z
	 ?minnssetlc@alglib_impl@@YAXPEAUminnsstate@1@PEAUae_matrix@1@PEAUae_vector@1@_JPEAUae_state@1@@Z
	 ?minnssetnlc@alglib@@YAXAEBVminnsstate@1@_J1@Z
	 ?minnssetnlc@alglib_impl@@YAXPEAUminnsstate@1@_J1PEAUae_state@1@@Z
	 ?minnssetscale@alglib@@YAXAEBVminnsstate@1@AEBVreal_1d_array@1@@Z
	 ?minnssetscale@alglib_impl@@YAXPEAUminnsstate@1@PEAUae_vector@1@PEAUae_state@1@@Z
	 ?minnssetxrep@alglib@@YAXAEBVminnsstate@1@_N@Z
	 ?minnssetxrep@alglib_impl@@YAXPEAUminnsstate@1@_NPEAUae_state@1@@Z
	 ?minqpcreate@alglib@@YAX_JAEAVminqpstate@1@@Z
	 ?minqpcreate@alglib_impl@@YAX_JPEAUminqpstate@1@PEAUae_state@1@@Z
	 ?minqpoptimize@alglib@@YAXAEBVminqpstate@1@@Z
	 ?minqpoptimize@alglib_impl@@YAXPEAUminqpstate@1@PEAUae_state@1@@Z
	 ?minqpresults@alglib@@YAXAEBVminqpstate@1@AEAVreal_1d_array@1@AEAVminqpreport@1@@Z
	 ?minqpresults@alglib_impl@@YAXPEAUminqpstate@1@PEAUae_vector@1@PEAUminqpreport@1@PEAUae_state@1@@Z
	 ?minqpresultsbuf@alglib@@YAXAEBVminqpstate@1@AEAVreal_1d_array@1@AEAVminqpreport@1@@Z
	 ?minqpresultsbuf@alglib_impl@@YAXPEAUminqpstate@1@PEAUae_vector@1@PEAUminqpreport@1@PEAUae_state@1@@Z
	 ?minqprewritediagonal@alglib_impl@@YAXPEAUminqpstate@1@PEAUae_vector@1@PEAUae_state@1@@Z
	 ?minqpsetalgobleic@alglib@@YAXAEBVminqpstate@1@NNN_J@Z
	 ?minqpsetalgobleic@alglib_impl@@YAXPEAUminqpstate@1@NNN_JPEAUae_state@1@@Z
	 ?minqpsetalgocholesky@alglib@@YAXAEBVminqpstate@1@@Z
	 ?minqpsetalgocholesky@alglib_impl@@YAXPEAUminqpstate@1@PEAUae_state@1@@Z
	 ?minqpsetalgoquickqp@alglib@@YAXAEBVminqpstate@1@NNN_J_N@Z
	 ?minqpsetalgoquickqp@alglib_impl@@YAXPEAUminqpstate@1@NNN_J_NPEAUae_state@1@@Z
	 ?minqpsetbc@alglib@@YAXAEBVminqpstate@1@AEBVreal_1d_array@1@1@Z
	 ?minqpsetbc@alglib_impl@@YAXPEAUminqpstate@1@PEAUae_vector@1@1PEAUae_state@1@@Z
	 ?minqpsetlc@alglib@@YAXAEBVminqpstate@1@AEBVreal_2d_array@1@AEBVinteger_1d_array@1@@Z
	 ?minqpsetlc@alglib@@YAXAEBVminqpstate@1@AEBVreal_2d_array@1@AEBVinteger_1d_array@1@_J@Z
	 ?minqpsetlc@alglib_impl@@YAXPEAUminqpstate@1@PEAUae_matrix@1@PEAUae_vector@1@_JPEAUae_state@1@@Z
	 ?minqpsetlinearterm@alglib@@YAXAEBVminqpstate@1@AEBVreal_1d_array@1@@Z
	 ?minqpsetlinearterm@alglib_impl@@YAXPEAUminqpstate@1@PEAUae_vector@1@PEAUae_state@1@@Z
	 ?minqpsetlineartermfast@alglib_impl@@YAXPEAUminqpstate@1@PEAUae_vector@1@PEAUae_state@1@@Z
	 ?minqpsetorigin@alglib@@YAXAEBVminqpstate@1@AEBVreal_1d_array@1@@Z
	 ?minqpsetorigin@alglib_impl@@YAXPEAUminqpstate@1@PEAUae_vector@1@PEAUae_state@1@@Z
	 ?minqpsetoriginfast@alglib_impl@@YAXPEAUminqpstate@1@PEAUae_vector@1@PEAUae_state@1@@Z
	 ?minqpsetquadraticterm@alglib@@YAXAEBVminqpstate@1@AEBVreal_2d_array@1@@Z
	 ?minqpsetquadraticterm@alglib@@YAXAEBVminqpstate@1@AEBVreal_2d_array@1@_N@Z
	 ?minqpsetquadraticterm@alglib_impl@@YAXPEAUminqpstate@1@PEAUae_matrix@1@_NPEAUae_state@1@@Z
	 ?minqpsetquadratictermfast@alglib_impl@@YAXPEAUminqpstate@1@PEAUae_matrix@1@_NNPEAUae_state@1@@Z
	 ?minqpsetquadratictermsparse@alglib@@YAXAEBVminqpstate@1@AEBVsparsematrix@1@_N@Z
	 ?minqpsetquadratictermsparse@alglib_impl@@YAXPEAUminqpstate@1@PEAUsparsematrix@1@_NPEAUae_state@1@@Z
	 ?minqpsetscale@alglib@@YAXAEBVminqpstate@1@AEBVreal_1d_array@1@@Z
	 ?minqpsetscale@alglib_impl@@YAXPEAUminqpstate@1@PEAUae_vector@1@PEAUae_state@1@@Z
	 ?minqpsetstartingpoint@alglib@@YAXAEBVminqpstate@1@AEBVreal_1d_array@1@@Z
	 ?minqpsetstartingpoint@alglib_impl@@YAXPEAUminqpstate@1@PEAUae_vector@1@PEAUae_state@1@@Z
	 ?minqpsetstartingpointfast@alglib_impl@@YAXPEAUminqpstate@1@PEAUae_vector@1@PEAUae_state@1@@Z
	 ?numberofchangedconstraints@alglib_impl@@YA_JPEAUae_vector@1@00000_J1PEAUae_state@1@@Z
	 ?postprocessboundedstep@alglib_impl@@YA_JPEAUae_vector@1@00000_J11NNNPEAUae_state@1@@Z
	 ?preparelowrankpreconditioner@alglib_impl@@YAXPEAUae_vector@1@0PEAUae_matrix@1@_J2PEAUprecbuflowrank@1@PEAUae_state@1@@Z
	 ?projectgradientintobc@alglib_impl@@YAXPEAUae_vector@1@00000_J1PEAUae_state@1@@Z
	 ?qpbleiccopysettings@alglib_impl@@YAXPEAUqpbleicsettings@1@0PEAUae_state@1@@Z
	 ?qpbleicloaddefaults@alglib_impl@@YAX_JPEAUqpbleicsettings@1@PEAUae_state@1@@Z
	 ?qpbleicoptimize@alglib_impl@@YAXPEAUconvexquadraticmodel@1@PEAUsparsematrix@1@_J_NNNPEAUae_vector@1@44442PEAUae_matrix@1@22PEAUqpbleicsettings@1@PEAUqpbleicbuffers@1@PEA_N4PEA_JPEAUae_state@1@@Z
	 ?qpcholeskycopysettings@alglib_impl@@YAXPEAUqpcholeskysettings@1@0PEAUae_state@1@@Z
	 ?qpcholeskyloaddefaults@alglib_impl@@YAX_JPEAUqpcholeskysettings@1@PEAUae_state@1@@Z
	 ?qpcholeskyoptimize@alglib_impl@@YAXPEAUconvexquadraticmodel@1@NPEAUae_vector@1@1111_JPEAUae_matrix@1@22PEAUqpcholeskybuffers@1@1PEA_JPEAUae_state@1@@Z
	 ?qqpcopysettings@alglib_impl@@YAXPEAUqqpsettings@1@0PEAUae_state@1@@Z
	 ?qqploaddefaults@alglib_impl@@YAX_JPEAUqqpsettings@1@PEAUae_state@1@@Z
	 ?qqpoptimize@alglib_impl@@YAXPEAUconvexquadraticmodel@1@PEAUsparsematrix@1@_J_NPEAUae_vector@1@44442PEAUae_matrix@1@22PEAUqqpsettings@1@PEAUqqpbuffers@1@4PEA_JPEAUae_state@1@@Z
	 ?sasactivelcpenalty1@alglib_impl@@YANPEAUsactiveset@1@PEAUae_vector@1@PEAUae_state@1@@Z
	 ?sasconstraineddescent@alglib_impl@@YAXPEAUsactiveset@1@PEAUae_vector@1@1PEAUae_state@1@@Z
	 ?sasconstraineddescentprec@alglib_impl@@YAXPEAUsactiveset@1@PEAUae_vector@1@1PEAUae_state@1@@Z
	 ?sasconstraineddirection@alglib_impl@@YAXPEAUsactiveset@1@PEAUae_vector@1@PEAUae_state@1@@Z
	 ?sasconstraineddirectionprec@alglib_impl@@YAXPEAUsactiveset@1@PEAUae_vector@1@PEAUae_state@1@@Z
	 ?sascorrection@alglib_impl@@YAXPEAUsactiveset@1@PEAUae_vector@1@PEANPEAUae_state@1@@Z
	 ?sasexploredirection@alglib_impl@@YAXPEAUsactiveset@1@PEAUae_vector@1@PEANPEA_J2PEAUae_state@1@@Z
	 ?sasimmediateactivation@alglib_impl@@YAXPEAUsactiveset@1@_JNPEAUae_state@1@@Z
	 ?sasinit@alglib_impl@@YAX_JPEAUsactiveset@1@PEAUae_state@1@@Z
	 ?sasmoveto@alglib_impl@@YA_JPEAUsactiveset@1@PEAUae_vector@1@_N_JNPEAUae_state@1@@Z
	 ?sasreactivateconstraints@alglib_impl@@YAXPEAUsactiveset@1@PEAUae_vector@1@PEAUae_state@1@@Z
	 ?sasreactivateconstraintsprec@alglib_impl@@YAXPEAUsactiveset@1@PEAUae_vector@1@PEAUae_state@1@@Z
	 ?sasrebuildbasis@alglib_impl@@YAXPEAUsactiveset@1@PEAUae_state@1@@Z
	 ?sasscaledconstrainednorm@alglib_impl@@YANPEAUsactiveset@1@PEAUae_vector@1@PEAUae_state@1@@Z
	 ?sassetbc@alglib_impl@@YAXPEAUsactiveset@1@PEAUae_vector@1@1PEAUae_state@1@@Z
	 ?sassetlc@alglib_impl@@YAXPEAUsactiveset@1@PEAUae_matrix@1@PEAUae_vector@1@_JPEAUae_state@1@@Z
	 ?sassetlcx@alglib_impl@@YAXPEAUsactiveset@1@PEAUae_matrix@1@_J2PEAUae_state@1@@Z
	 ?sassetprecdiag@alglib_impl@@YAXPEAUsactiveset@1@PEAUae_vector@1@PEAUae_state@1@@Z
	 ?sassetscale@alglib_impl@@YAXPEAUsactiveset@1@PEAUae_vector@1@PEAUae_state@1@@Z
	 ?sasstartoptimization@alglib_impl@@YA_NPEAUsactiveset@1@PEAUae_vector@1@PEAUae_state@1@@Z
	 ?sasstopoptimization@alglib_impl@@YAXPEAUsactiveset@1@PEAUae_state@1@@Z
	 ?snnlsdropnnc@alglib_impl@@YAXPEAUsnnlssolver@1@_JPEAUae_state@1@@Z
	 ?snnlsinit@alglib_impl@@YAX_J00PEAUsnnlssolver@1@PEAUae_state@1@@Z
	 ?snnlssetproblem@alglib_impl@@YAXPEAUsnnlssolver@1@PEAUae_matrix@1@PEAUae_vector@1@_J33PEAUae_state@1@@Z
	 ?snnlssolve@alglib_impl@@YAXPEAUsnnlssolver@1@PEAUae_vector@1@PEAUae_state@1@@Z
	 ?trimfunction@alglib_impl@@YAXPEANPEAUae_vector@1@_JNPEAUae_state@1@@Z
	 ?trimprepare@alglib_impl@@YAXNPEANPEAUae_state@1@@Z
	 ??_7_densesolverlsreport_owner@alglib@@6B@
	 ??_7_densesolverreport_owner@alglib@@6B@
	 ??_7_lincgreport_owner@alglib@@6B@
	 ??_7_lincgstate_owner@alglib@@6B@
	 ??_7_linlsqrreport_owner@alglib@@6B@
	 ??_7_linlsqrstate_owner@alglib@@6B@
	 ??_7_nleqreport_owner@alglib@@6B@
	 ??_7_nleqstate_owner@alglib@@6B@
	 ??_7_polynomialsolverreport_owner@alglib@@6B@
	 ??_7densesolverlsreport@alglib@@6B@
	 ??_7densesolverreport@alglib@@6B@
	 ??_7lincgreport@alglib@@6B@
	 ??_7lincgstate@alglib@@6B@
	 ??_7linlsqrreport@alglib@@6B@
	 ??_7linlsqrstate@alglib@@6B@
	 ??_7nleqreport@alglib@@6B@
	 ??_7nleqstate@alglib@@6B@
	 ??_7polynomialsolverreport@alglib@@6B@
	 ??_R0?AV_densesolverlsreport_owner@alglib@@@8
	 ??_R0?AV_densesolverreport_owner@alglib@@@8
	 ??_R0?AV_lincgreport_owner@alglib@@@8
	 ??_R0?AV_lincgstate_owner@alglib@@@8
	 ??_R0?AV_linlsqrreport_owner@alglib@@@8
	 ??_R0?AV_linlsqrstate_owner@alglib@@@8
	 ??_R0?AV_nleqreport_owner@alglib@@@8
	 ??_R0?AV_nleqstate_owner@alglib@@@8
	 ??_R0?AV_polynomialsolverreport_owner@alglib@@@8
	 ??_R0?AVdensesolverlsreport@alglib@@@8
	 ??_R0?AVdensesolverreport@alglib@@@8
	 ??_R0?AVlincgreport@alglib@@@8
	 ??_R0?AVlincgstate@alglib@@@8
	 ??_R0?AVlinlsqrreport@alglib@@@8
	 ??_R0?AVlinlsqrstate@alglib@@@8
	 ??_R0?AVnleqreport@alglib@@@8
	 ??_R0?AVnleqstate@alglib@@@8
	 ??_R0?AVpolynomialsolverreport@alglib@@@8
	 ??_R1A@?0A@EA@_densesolverlsreport_owner@alglib@@8
	 ??_R1A@?0A@EA@_densesolverreport_owner@alglib@@8
	 ??_R1A@?0A@EA@_lincgreport_owner@alglib@@8
	 ??_R1A@?0A@EA@_lincgstate_owner@alglib@@8
	 ??_R1A@?0A@EA@_linlsqrreport_owner@alglib@@8
	 ??_R1A@?0A@EA@_linlsqrstate_owner@alglib@@8
	 ??_R1A@?0A@EA@_nleqreport_owner@alglib@@8
	 ??_R1A@?0A@EA@_nleqstate_owner@alglib@@8
	 ??_R1A@?0A@EA@_polynomialsolverreport_owner@alglib@@8
	 ??_R1A@?0A@EA@densesolverlsreport@alglib@@8
	 ??_R1A@?0A@EA@densesolverreport@alglib@@8
	 ??_R1A@?0A@EA@lincgreport@alglib@@8
	 ??_R1A@?0A@EA@lincgstate@alglib@@8
	 ??_R1A@?0A@EA@linlsqrreport@alglib@@8
	 ??_R1A@?0A@EA@linlsqrstate@alglib@@8
	 ??_R1A@?0A@EA@nleqreport@alglib@@8
	 ??_R1A@?0A@EA@nleqstate@alglib@@8
	 ??_R1A@?0A@EA@polynomialsolverreport@alglib@@8
	 ??_R2_densesolverlsreport_owner@alglib@@8
	 ??_R2_densesolverreport_owner@alglib@@8
	 ??_R2_lincgreport_owner@alglib@@8
	 ??_R2_lincgstate_owner@alglib@@8
	 ??_R2_linlsqrreport_owner@alglib@@8
	 ??_R2_linlsqrstate_owner@alglib@@8
	 ??_R2_nleqreport_owner@alglib@@8
	 ??_R2_nleqstate_owner@alglib@@8
	 ??_R2_polynomialsolverreport_owner@alglib@@8
	 ??_R2densesolverlsreport@alglib@@8
	 ??_R2densesolverreport@alglib@@8
	 ??_R2lincgreport@alglib@@8
	 ??_R2lincgstate@alglib@@8
	 ??_R2linlsqrreport@alglib@@8
	 ??_R2linlsqrstate@alglib@@8
	 ??_R2nleqreport@alglib@@8
	 ??_R2nleqstate@alglib@@8
	 ??_R2polynomialsolverreport@alglib@@8
	 ??_R3_densesolverlsreport_owner@alglib@@8
	 ??_R3_densesolverreport_owner@alglib@@8
	 ??_R3_lincgreport_owner@alglib@@8
	 ??_R3_lincgstate_owner@alglib@@8
	 ??_R3_linlsqrreport_owner@alglib@@8
	 ??_R3_linlsqrstate_owner@alglib@@8
	 ??_R3_nleqreport_owner@alglib@@8
	 ??_R3_nleqstate_owner@alglib@@8
	 ??_R3_polynomialsolverreport_owner@alglib@@8
	 ??_R3densesolverlsreport@alglib@@8
	 ??_R3densesolverreport@alglib@@8
	 ??_R3lincgreport@alglib@@8
	 ??_R3lincgstate@alglib@@8
	 ??_R3linlsqrreport@alglib@@8
	 ??_R3linlsqrstate@alglib@@8
	 ??_R3nleqreport@alglib@@8
	 ??_R3nleqstate@alglib@@8
	 ??_R3polynomialsolverreport@alglib@@8
	 ??_R4_densesolverlsreport_owner@alglib@@6B@
	 ??_R4_densesolverreport_owner@alglib@@6B@
	 ??_R4_lincgreport_owner@alglib@@6B@
	 ??_R4_lincgstate_owner@alglib@@6B@
	 ??_R4_linlsqrreport_owner@alglib@@6B@
	 ??_R4_linlsqrstate_owner@alglib@@6B@
	 ??_R4_nleqreport_owner@alglib@@6B@
	 ??_R4_nleqstate_owner@alglib@@6B@
	 ??_R4_polynomialsolverreport_owner@alglib@@6B@
	 ??_R4densesolverlsreport@alglib@@6B@
	 ??_R4densesolverreport@alglib@@6B@
	 ??_R4lincgreport@alglib@@6B@
	 ??_R4lincgstate@alglib@@6B@
	 ??_R4linlsqrreport@alglib@@6B@
	 ??_R4linlsqrstate@alglib@@6B@
	 ??_R4nleqreport@alglib@@6B@
	 ??_R4nleqstate@alglib@@6B@
	 ??_R4polynomialsolverreport@alglib@@6B@
	 ??0_densesolverlsreport_owner@alglib@@QEAA@AEBV01@@Z
	 ??0_densesolverlsreport_owner@alglib@@QEAA@XZ
	 ??0_densesolverreport_owner@alglib@@QEAA@AEBV01@@Z
	 ??0_densesolverreport_owner@alglib@@QEAA@XZ
	 ??0_lincgreport_owner@alglib@@QEAA@AEBV01@@Z
	 ??0_lincgreport_owner@alglib@@QEAA@XZ
	 ??0_lincgstate_owner@alglib@@QEAA@AEBV01@@Z
	 ??0_lincgstate_owner@alglib@@QEAA@XZ
	 ??0_linlsqrreport_owner@alglib@@QEAA@AEBV01@@Z
	 ??0_linlsqrreport_owner@alglib@@QEAA@XZ
	 ??0_linlsqrstate_owner@alglib@@QEAA@AEBV01@@Z
	 ??0_linlsqrstate_owner@alglib@@QEAA@XZ
	 ??0_nleqreport_owner@alglib@@QEAA@AEBV01@@Z
	 ??0_nleqreport_owner@alglib@@QEAA@XZ
	 ??0_nleqstate_owner@alglib@@QEAA@AEBV01@@Z
	 ??0_nleqstate_owner@alglib@@QEAA@XZ
	 ??0_polynomialsolverreport_owner@alglib@@QEAA@AEBV01@@Z
	 ??0_polynomialsolverreport_owner@alglib@@QEAA@XZ
	 ??0ap_error@alglib@@QEAA@AEBV01@@Z
	 ??0densesolverlsreport@alglib@@QEAA@AEBV01@@Z
	 ??0densesolverlsreport@alglib@@QEAA@XZ
	 ??0densesolverreport@alglib@@QEAA@AEBV01@@Z
	 ??0densesolverreport@alglib@@QEAA@XZ
	 ??0lincgreport@alglib@@QEAA@AEBV01@@Z
	 ??0lincgreport@alglib@@QEAA@XZ
	 ??0lincgstate@alglib@@QEAA@AEBV01@@Z
	 ??0lincgstate@alglib@@QEAA@XZ
	 ??0linlsqrreport@alglib@@QEAA@AEBV01@@Z
	 ??0linlsqrreport@alglib@@QEAA@XZ
	 ??0linlsqrstate@alglib@@QEAA@AEBV01@@Z
	 ??0linlsqrstate@alglib@@QEAA@XZ
	 ??0nleqreport@alglib@@QEAA@AEBV01@@Z
	 ??0nleqreport@alglib@@QEAA@XZ
	 ??0nleqstate@alglib@@QEAA@AEBV01@@Z
	 ??0nleqstate@alglib@@QEAA@XZ
	 ??0polynomialsolverreport@alglib@@QEAA@AEBV01@@Z
	 ??0polynomialsolverreport@alglib@@QEAA@XZ
	 ??1_densesolverlsreport_owner@alglib@@UEAA@XZ
	 ??1_densesolverreport_owner@alglib@@UEAA@XZ
	 ??1_lincgreport_owner@alglib@@UEAA@XZ
	 ??1_lincgstate_owner@alglib@@UEAA@XZ
	 ??1_linlsqrreport_owner@alglib@@UEAA@XZ
	 ??1_linlsqrstate_owner@alglib@@UEAA@XZ
	 ??1_nleqreport_owner@alglib@@UEAA@XZ
	 ??1_nleqstate_owner@alglib@@UEAA@XZ
	 ??1_polynomialsolverreport_owner@alglib@@UEAA@XZ
	 ??1ap_error@alglib@@QEAA@XZ
	 ??1densesolverlsreport@alglib@@UEAA@XZ
	 ??1densesolverreport@alglib@@UEAA@XZ
	 ??1lincgreport@alglib@@UEAA@XZ
	 ??1lincgstate@alglib@@UEAA@XZ
	 ??1linlsqrreport@alglib@@UEAA@XZ
	 ??1linlsqrstate@alglib@@UEAA@XZ
	 ??1nleqreport@alglib@@UEAA@XZ
	 ??1nleqstate@alglib@@UEAA@XZ
	 ??1polynomialsolverreport@alglib@@UEAA@XZ
	 ??4_densesolverlsreport_owner@alglib@@QEAAAEAV01@AEBV01@@Z
	 ??4_densesolverreport_owner@alglib@@QEAAAEAV01@AEBV01@@Z
	 ??4_lincgreport_owner@alglib@@QEAAAEAV01@AEBV01@@Z
	 ??4_lincgstate_owner@alglib@@QEAAAEAV01@AEBV01@@Z
	 ??4_linlsqrreport_owner@alglib@@QEAAAEAV01@AEBV01@@Z
	 ??4_linlsqrstate_owner@alglib@@QEAAAEAV01@AEBV01@@Z
	 ??4_nleqreport_owner@alglib@@QEAAAEAV01@AEBV01@@Z
	 ??4_nleqstate_owner@alglib@@QEAAAEAV01@AEBV01@@Z
	 ??4_polynomialsolverreport_owner@alglib@@QEAAAEAV01@AEBV01@@Z
	 ??4densesolverlsreport@alglib@@QEAAAEAV01@AEBV01@@Z
	 ??4densesolverreport@alglib@@QEAAAEAV01@AEBV01@@Z
	 ??4lincgreport@alglib@@QEAAAEAV01@AEBV01@@Z
	 ??4lincgstate@alglib@@QEAAAEAV01@AEBV01@@Z
	 ??4linlsqrreport@alglib@@QEAAAEAV01@AEBV01@@Z
	 ??4linlsqrstate@alglib@@QEAAAEAV01@AEBV01@@Z
	 ??4nleqreport@alglib@@QEAAAEAV01@AEBV01@@Z
	 ??4nleqstate@alglib@@QEAAAEAV01@AEBV01@@Z
	 ??4polynomialsolverreport@alglib@@QEAAAEAV01@AEBV01@@Z
	 ?_densesolverlsreport_clear@alglib_impl@@YAXPEAX@Z
	 ?_densesolverlsreport_destroy@alglib_impl@@YAXPEAX@Z
	 ?_densesolverlsreport_init@alglib_impl@@YAXPEAXPEAUae_state@1@@Z
	 ?_densesolverlsreport_init_copy@alglib_impl@@YAXPEAX0PEAUae_state@1@@Z
	 ?_densesolverreport_clear@alglib_impl@@YAXPEAX@Z
	 ?_densesolverreport_destroy@alglib_impl@@YAXPEAX@Z
	 ?_densesolverreport_init@alglib_impl@@YAXPEAXPEAUae_state@1@@Z
	 ?_densesolverreport_init_copy@alglib_impl@@YAXPEAX0PEAUae_state@1@@Z
	 ?_lincgreport_clear@alglib_impl@@YAXPEAX@Z
	 ?_lincgreport_destroy@alglib_impl@@YAXPEAX@Z
	 ?_lincgreport_init@alglib_impl@@YAXPEAXPEAUae_state@1@@Z
	 ?_lincgreport_init_copy@alglib_impl@@YAXPEAX0PEAUae_state@1@@Z
	 ?_lincgstate_clear@alglib_impl@@YAXPEAX@Z
	 ?_lincgstate_destroy@alglib_impl@@YAXPEAX@Z
	 ?_lincgstate_init@alglib_impl@@YAXPEAXPEAUae_state@1@@Z
	 ?_lincgstate_init_copy@alglib_impl@@YAXPEAX0PEAUae_state@1@@Z
	 ?_linlsqrreport_clear@alglib_impl@@YAXPEAX@Z
	 ?_linlsqrreport_destroy@alglib_impl@@YAXPEAX@Z
	 ?_linlsqrreport_init@alglib_impl@@YAXPEAXPEAUae_state@1@@Z
	 ?_linlsqrreport_init_copy@alglib_impl@@YAXPEAX0PEAUae_state@1@@Z
	 ?_linlsqrstate_clear@alglib_impl@@YAXPEAX@Z
	 ?_linlsqrstate_destroy@alglib_impl@@YAXPEAX@Z
	 ?_linlsqrstate_init@alglib_impl@@YAXPEAXPEAUae_state@1@@Z
	 ?_linlsqrstate_init_copy@alglib_impl@@YAXPEAX0PEAUae_state@1@@Z
	 ?_nleqreport_clear@alglib_impl@@YAXPEAX@Z
	 ?_nleqreport_destroy@alglib_impl@@YAXPEAX@Z
	 ?_nleqreport_init@alglib_impl@@YAXPEAXPEAUae_state@1@@Z
	 ?_nleqreport_init_copy@alglib_impl@@YAXPEAX0PEAUae_state@1@@Z
	 ?_nleqstate_clear@alglib_impl@@YAXPEAX@Z
	 ?_nleqstate_destroy@alglib_impl@@YAXPEAX@Z
	 ?_nleqstate_init@alglib_impl@@YAXPEAXPEAUae_state@1@@Z
	 ?_nleqstate_init_copy@alglib_impl@@YAXPEAX0PEAUae_state@1@@Z
	 ?_pexec_cmatrixlusolvem@alglib_impl@@YAXPEAUae_matrix@1@PEAUae_vector@1@_J02PEA_JPEAUdensesolverreport@1@0PEAUae_state@1@@Z
	 ?_pexec_cmatrixlusolvemfast@alglib_impl@@YAXPEAUae_matrix@1@PEAUae_vector@1@_J02PEA_JPEAUae_state@1@@Z
	 ?_pexec_cmatrixsolve@alglib_impl@@YAXPEAUae_matrix@1@_JPEAUae_vector@1@PEA_JPEAUdensesolverreport@1@2PEAUae_state@1@@Z
	 ?_pexec_cmatrixsolvefast@alglib_impl@@YAXPEAUae_matrix@1@_JPEAUae_vector@1@PEA_JPEAUae_state@1@@Z
	 ?_pexec_cmatrixsolvem@alglib_impl@@YAXPEAUae_matrix@1@_J01_NPEA_JPEAUdensesolverreport@1@0PEAUae_state@1@@Z
	 ?_pexec_cmatrixsolvemfast@alglib_impl@@YAXPEAUae_matrix@1@_J01PEA_JPEAUae_state@1@@Z
	 ?_pexec_hpdmatrixcholeskysolvem@alglib_impl@@YAXPEAUae_matrix@1@_J_N01PEA_JPEAUdensesolverreport@1@0PEAUae_state@1@@Z
	 ?_pexec_hpdmatrixcholeskysolvemfast@alglib_impl@@YAXPEAUae_matrix@1@_J_N01PEA_JPEAUae_state@1@@Z
	 ?_pexec_hpdmatrixsolve@alglib_impl@@YAXPEAUae_matrix@1@_J_NPEAUae_vector@1@PEA_JPEAUdensesolverreport@1@3PEAUae_state@1@@Z
	 ?_pexec_hpdmatrixsolvefast@alglib_impl@@YAXPEAUae_matrix@1@_J_NPEAUae_vector@1@PEA_JPEAUae_state@1@@Z
	 ?_pexec_hpdmatrixsolvem@alglib_impl@@YAXPEAUae_matrix@1@_J_N01PEA_JPEAUdensesolverreport@1@0PEAUae_state@1@@Z
	 ?_pexec_hpdmatrixsolvemfast@alglib_impl@@YAXPEAUae_matrix@1@_J_N01PEA_JPEAUae_state@1@@Z
	 ?_pexec_rmatrixlusolvem@alglib_impl@@YAXPEAUae_matrix@1@PEAUae_vector@1@_J02PEA_JPEAUdensesolverreport@1@0PEAUae_state@1@@Z
	 ?_pexec_rmatrixlusolvemfast@alglib_impl@@YAXPEAUae_matrix@1@PEAUae_vector@1@_J02PEA_JPEAUae_state@1@@Z
	 ?_pexec_rmatrixsolve@alglib_impl@@YAXPEAUae_matrix@1@_JPEAUae_vector@1@PEA_JPEAUdensesolverreport@1@2PEAUae_state@1@@Z
	 ?_pexec_rmatrixsolvefast@alglib_impl@@YAXPEAUae_matrix@1@_JPEAUae_vector@1@PEA_JPEAUae_state@1@@Z
	 ?_pexec_rmatrixsolvels@alglib_impl@@YAXPEAUae_matrix@1@_J1PEAUae_vector@1@NPEA_JPEAUdensesolverlsreport@1@2PEAUae_state@1@@Z
	 ?_pexec_rmatrixsolvem@alglib_impl@@YAXPEAUae_matrix@1@_J01_NPEA_JPEAUdensesolverreport@1@0PEAUae_state@1@@Z
	 ?_pexec_rmatrixsolvemfast@alglib_impl@@YAXPEAUae_matrix@1@_J01PEA_JPEAUae_state@1@@Z
	 ?_pexec_spdmatrixcholeskysolvem@alglib_impl@@YAXPEAUae_matrix@1@_J_N01PEA_JPEAUdensesolverreport@1@0PEAUae_state@1@@Z
	 ?_pexec_spdmatrixcholeskysolvemfast@alglib_impl@@YAXPEAUae_matrix@1@_J_N01PEA_JPEAUae_state@1@@Z
	 ?_pexec_spdmatrixsolve@alglib_impl@@YAXPEAUae_matrix@1@_J_NPEAUae_vector@1@PEA_JPEAUdensesolverreport@1@3PEAUae_state@1@@Z
	 ?_pexec_spdmatrixsolvefast@alglib_impl@@YAXPEAUae_matrix@1@_J_NPEAUae_vector@1@PEA_JPEAUae_state@1@@Z
	 ?_pexec_spdmatrixsolvem@alglib_impl@@YAXPEAUae_matrix@1@_J_N01PEA_JPEAUdensesolverreport@1@0PEAUae_state@1@@Z
	 ?_pexec_spdmatrixsolvemfast@alglib_impl@@YAXPEAUae_matrix@1@_J_N01PEA_JPEAUae_state@1@@Z
	 ?_polynomialsolverreport_clear@alglib_impl@@YAXPEAX@Z
	 ?_polynomialsolverreport_destroy@alglib_impl@@YAXPEAX@Z
	 ?_polynomialsolverreport_init@alglib_impl@@YAXPEAXPEAUae_state@1@@Z
	 ?_polynomialsolverreport_init_copy@alglib_impl@@YAXPEAX0PEAUae_state@1@@Z
	 ?c_ptr@_densesolverlsreport_owner@alglib@@QEAAPEAUdensesolverlsreport@alglib_impl@@XZ
	 ?c_ptr@_densesolverlsreport_owner@alglib@@QEBAPEAUdensesolverlsreport@alglib_impl@@XZ
	 ?c_ptr@_densesolverreport_owner@alglib@@QEAAPEAUdensesolverreport@alglib_impl@@XZ
	 ?c_ptr@_densesolverreport_owner@alglib@@QEBAPEAUdensesolverreport@alglib_impl@@XZ
	 ?c_ptr@_lincgreport_owner@alglib@@QEAAPEAUlincgreport@alglib_impl@@XZ
	 ?c_ptr@_lincgreport_owner@alglib@@QEBAPEAUlincgreport@alglib_impl@@XZ
	 ?c_ptr@_lincgstate_owner@alglib@@QEAAPEAUlincgstate@alglib_impl@@XZ
	 ?c_ptr@_lincgstate_owner@alglib@@QEBAPEAUlincgstate@alglib_impl@@XZ
	 ?c_ptr@_linlsqrreport_owner@alglib@@QEAAPEAUlinlsqrreport@alglib_impl@@XZ
	 ?c_ptr@_linlsqrreport_owner@alglib@@QEBAPEAUlinlsqrreport@alglib_impl@@XZ
	 ?c_ptr@_linlsqrstate_owner@alglib@@QEAAPEAUlinlsqrstate@alglib_impl@@XZ
	 ?c_ptr@_linlsqrstate_owner@alglib@@QEBAPEAUlinlsqrstate@alglib_impl@@XZ
	 ?c_ptr@_nleqreport_owner@alglib@@QEAAPEAUnleqreport@alglib_impl@@XZ
	 ?c_ptr@_nleqreport_owner@alglib@@QEBAPEAUnleqreport@alglib_impl@@XZ
	 ?c_ptr@_nleqstate_owner@alglib@@QEAAPEAUnleqstate@alglib_impl@@XZ
	 ?c_ptr@_nleqstate_owner@alglib@@QEBAPEAUnleqstate@alglib_impl@@XZ
	 ?c_ptr@_polynomialsolverreport_owner@alglib@@QEAAPEAUpolynomialsolverreport@alglib_impl@@XZ
	 ?c_ptr@_polynomialsolverreport_owner@alglib@@QEBAPEAUpolynomialsolverreport@alglib_impl@@XZ
	 ?cmatrixlusolve@alglib@@YAXAEBVcomplex_2d_array@1@AEBVinteger_1d_array@1@_JAEBVcomplex_1d_array@1@AEA_JAEAVdensesolverreport@1@AEAV41@@Z
	 ?cmatrixlusolve@alglib_impl@@YAXPEAUae_matrix@1@PEAUae_vector@1@_J1PEA_JPEAUdensesolverreport@1@1PEAUae_state@1@@Z
	 ?cmatrixlusolvefast@alglib@@YAXAEBVcomplex_2d_array@1@AEBVinteger_1d_array@1@_JAEBVcomplex_1d_array@1@AEA_J@Z
	 ?cmatrixlusolvefast@alglib_impl@@YAXPEAUae_matrix@1@PEAUae_vector@1@_J1PEA_JPEAUae_state@1@@Z
	 ?cmatrixlusolvem@alglib@@YAXAEBVcomplex_2d_array@1@AEBVinteger_1d_array@1@_J02AEA_JAEAVdensesolverreport@1@AEAV21@@Z
	 ?cmatrixlusolvem@alglib_impl@@YAXPEAUae_matrix@1@PEAUae_vector@1@_J02PEA_JPEAUdensesolverreport@1@0PEAUae_state@1@@Z
	 ?cmatrixlusolvemfast@alglib@@YAXAEBVcomplex_2d_array@1@AEBVinteger_1d_array@1@_J02AEA_J@Z
	 ?cmatrixlusolvemfast@alglib_impl@@YAXPEAUae_matrix@1@PEAUae_vector@1@_J02PEA_JPEAUae_state@1@@Z
	 ?cmatrixmixedsolve@alglib@@YAXAEBVcomplex_2d_array@1@0AEBVinteger_1d_array@1@_JAEBVcomplex_1d_array@1@AEA_JAEAVdensesolverreport@1@AEAV41@@Z
	 ?cmatrixmixedsolve@alglib_impl@@YAXPEAUae_matrix@1@0PEAUae_vector@1@_J1PEA_JPEAUdensesolverreport@1@1PEAUae_state@1@@Z
	 ?cmatrixmixedsolvem@alglib@@YAXAEBVcomplex_2d_array@1@0AEBVinteger_1d_array@1@_J02AEA_JAEAVdensesolverreport@1@AEAV21@@Z
	 ?cmatrixmixedsolvem@alglib_impl@@YAXPEAUae_matrix@1@0PEAUae_vector@1@_J02PEA_JPEAUdensesolverreport@1@0PEAUae_state@1@@Z
	 ?cmatrixsolve@alglib@@YAXAEBVcomplex_2d_array@1@_JAEBVcomplex_1d_array@1@AEA_JAEAVdensesolverreport@1@AEAV31@@Z
	 ?cmatrixsolve@alglib_impl@@YAXPEAUae_matrix@1@_JPEAUae_vector@1@PEA_JPEAUdensesolverreport@1@2PEAUae_state@1@@Z
	 ?cmatrixsolvefast@alglib@@YAXAEBVcomplex_2d_array@1@_JAEBVcomplex_1d_array@1@AEA_J@Z
	 ?cmatrixsolvefast@alglib_impl@@YAXPEAUae_matrix@1@_JPEAUae_vector@1@PEA_JPEAUae_state@1@@Z
	 ?cmatrixsolvem@alglib@@YAXAEBVcomplex_2d_array@1@_J01_NAEA_JAEAVdensesolverreport@1@AEAV21@@Z
	 ?cmatrixsolvem@alglib_impl@@YAXPEAUae_matrix@1@_J01_NPEA_JPEAUdensesolverreport@1@0PEAUae_state@1@@Z
	 ?cmatrixsolvemfast@alglib@@YAXAEBVcomplex_2d_array@1@_J01AEA_J@Z
	 ?cmatrixsolvemfast@alglib_impl@@YAXPEAUae_matrix@1@_J01PEA_JPEAUae_state@1@@Z
	 ?hpdmatrixcholeskysolve@alglib@@YAXAEBVcomplex_2d_array@1@_J_NAEBVcomplex_1d_array@1@AEA_JAEAVdensesolverreport@1@AEAV31@@Z
	 ?hpdmatrixcholeskysolve@alglib_impl@@YAXPEAUae_matrix@1@_J_NPEAUae_vector@1@PEA_JPEAUdensesolverreport@1@3PEAUae_state@1@@Z
	 ?hpdmatrixcholeskysolvefast@alglib@@YAXAEBVcomplex_2d_array@1@_J_NAEBVcomplex_1d_array@1@AEA_J@Z
	 ?hpdmatrixcholeskysolvefast@alglib_impl@@YAXPEAUae_matrix@1@_J_NPEAUae_vector@1@PEA_JPEAUae_state@1@@Z
	 ?hpdmatrixcholeskysolvem@alglib@@YAXAEBVcomplex_2d_array@1@_J_N01AEA_JAEAVdensesolverreport@1@AEAV21@@Z
	 ?hpdmatrixcholeskysolvem@alglib_impl@@YAXPEAUae_matrix@1@_J_N01PEA_JPEAUdensesolverreport@1@0PEAUae_state@1@@Z
	 ?hpdmatrixcholeskysolvemfast@alglib@@YAXAEBVcomplex_2d_array@1@_J_N01AEA_J@Z
	 ?hpdmatrixcholeskysolvemfast@alglib_impl@@YAXPEAUae_matrix@1@_J_N01PEA_JPEAUae_state@1@@Z
	 ?hpdmatrixsolve@alglib@@YAXAEBVcomplex_2d_array@1@_J_NAEBVcomplex_1d_array@1@AEA_JAEAVdensesolverreport@1@AEAV31@@Z
	 ?hpdmatrixsolve@alglib_impl@@YAXPEAUae_matrix@1@_J_NPEAUae_vector@1@PEA_JPEAUdensesolverreport@1@3PEAUae_state@1@@Z
	 ?hpdmatrixsolvefast@alglib@@YAXAEBVcomplex_2d_array@1@_J_NAEBVcomplex_1d_array@1@AEA_J@Z
	 ?hpdmatrixsolvefast@alglib_impl@@YAXPEAUae_matrix@1@_J_NPEAUae_vector@1@PEA_JPEAUae_state@1@@Z
	 ?hpdmatrixsolvem@alglib@@YAXAEBVcomplex_2d_array@1@_J_N01AEA_JAEAVdensesolverreport@1@AEAV21@@Z
	 ?hpdmatrixsolvem@alglib_impl@@YAXPEAUae_matrix@1@_J_N01PEA_JPEAUdensesolverreport@1@0PEAUae_state@1@@Z
	 ?hpdmatrixsolvemfast@alglib@@YAXAEBVcomplex_2d_array@1@_J_N01AEA_J@Z
	 ?hpdmatrixsolvemfast@alglib_impl@@YAXPEAUae_matrix@1@_J_N01PEA_JPEAUae_state@1@@Z
	 ?lincgcreate@alglib@@YAX_JAEAVlincgstate@1@@Z
	 ?lincgcreate@alglib_impl@@YAX_JPEAUlincgstate@1@PEAUae_state@1@@Z
	 ?lincgiteration@alglib_impl@@YA_NPEAUlincgstate@1@PEAUae_state@1@@Z
	 ?lincgrestart@alglib_impl@@YAXPEAUlincgstate@1@PEAUae_state@1@@Z
	 ?lincgresults@alglib@@YAXAEBVlincgstate@1@AEAVreal_1d_array@1@AEAVlincgreport@1@@Z
	 ?lincgresults@alglib_impl@@YAXPEAUlincgstate@1@PEAUae_vector@1@PEAUlincgreport@1@PEAUae_state@1@@Z
	 ?lincgsetb@alglib_impl@@YAXPEAUlincgstate@1@PEAUae_vector@1@PEAUae_state@1@@Z
	 ?lincgsetcond@alglib@@YAXAEBVlincgstate@1@N_J@Z
	 ?lincgsetcond@alglib_impl@@YAXPEAUlincgstate@1@N_JPEAUae_state@1@@Z
	 ?lincgsetprecdiag@alglib@@YAXAEBVlincgstate@1@@Z
	 ?lincgsetprecdiag@alglib_impl@@YAXPEAUlincgstate@1@PEAUae_state@1@@Z
	 ?lincgsetprecunit@alglib@@YAXAEBVlincgstate@1@@Z
	 ?lincgsetprecunit@alglib_impl@@YAXPEAUlincgstate@1@PEAUae_state@1@@Z
	 ?lincgsetrestartfreq@alglib@@YAXAEBVlincgstate@1@_J@Z
	 ?lincgsetrestartfreq@alglib_impl@@YAXPEAUlincgstate@1@_JPEAUae_state@1@@Z
	 ?lincgsetrupdatefreq@alglib@@YAXAEBVlincgstate@1@_J@Z
	 ?lincgsetrupdatefreq@alglib_impl@@YAXPEAUlincgstate@1@_JPEAUae_state@1@@Z
	 ?lincgsetstartingpoint@alglib@@YAXAEBVlincgstate@1@AEBVreal_1d_array@1@@Z
	 ?lincgsetstartingpoint@alglib_impl@@YAXPEAUlincgstate@1@PEAUae_vector@1@PEAUae_state@1@@Z
	 ?lincgsetxrep@alglib@@YAXAEBVlincgstate@1@_N@Z
	 ?lincgsetxrep@alglib_impl@@YAXPEAUlincgstate@1@_NPEAUae_state@1@@Z
	 ?lincgsolvesparse@alglib@@YAXAEBVlincgstate@1@AEBVsparsematrix@1@_NAEBVreal_1d_array@1@@Z
	 ?lincgsolvesparse@alglib_impl@@YAXPEAUlincgstate@1@PEAUsparsematrix@1@_NPEAUae_vector@1@PEAUae_state@1@@Z
	 ?linlsqrcreate@alglib@@YAX_J0AEAVlinlsqrstate@1@@Z
	 ?linlsqrcreate@alglib_impl@@YAX_J0PEAUlinlsqrstate@1@PEAUae_state@1@@Z
	 ?linlsqriteration@alglib_impl@@YA_NPEAUlinlsqrstate@1@PEAUae_state@1@@Z
	 ?linlsqrrestart@alglib_impl@@YAXPEAUlinlsqrstate@1@PEAUae_state@1@@Z
	 ?linlsqrresults@alglib@@YAXAEBVlinlsqrstate@1@AEAVreal_1d_array@1@AEAVlinlsqrreport@1@@Z
	 ?linlsqrresults@alglib_impl@@YAXPEAUlinlsqrstate@1@PEAUae_vector@1@PEAUlinlsqrreport@1@PEAUae_state@1@@Z
	 ?linlsqrsetb@alglib_impl@@YAXPEAUlinlsqrstate@1@PEAUae_vector@1@PEAUae_state@1@@Z
	 ?linlsqrsetcond@alglib@@YAXAEBVlinlsqrstate@1@NN_J@Z
	 ?linlsqrsetcond@alglib_impl@@YAXPEAUlinlsqrstate@1@NN_JPEAUae_state@1@@Z
	 ?linlsqrsetlambdai@alglib@@YAXAEBVlinlsqrstate@1@N@Z
	 ?linlsqrsetlambdai@alglib_impl@@YAXPEAUlinlsqrstate@1@NPEAUae_state@1@@Z
	 ?linlsqrsetprecdiag@alglib@@YAXAEBVlinlsqrstate@1@@Z
	 ?linlsqrsetprecdiag@alglib_impl@@YAXPEAUlinlsqrstate@1@PEAUae_state@1@@Z
	 ?linlsqrsetprecunit@alglib@@YAXAEBVlinlsqrstate@1@@Z
	 ?linlsqrsetprecunit@alglib_impl@@YAXPEAUlinlsqrstate@1@PEAUae_state@1@@Z
	 ?linlsqrsetxrep@alglib@@YAXAEBVlinlsqrstate@1@_N@Z
	 ?linlsqrsetxrep@alglib_impl@@YAXPEAUlinlsqrstate@1@_NPEAUae_state@1@@Z
	 ?linlsqrsolvesparse@alglib@@YAXAEBVlinlsqrstate@1@AEBVsparsematrix@1@AEBVreal_1d_array@1@@Z
	 ?linlsqrsolvesparse@alglib_impl@@YAXPEAUlinlsqrstate@1@PEAUsparsematrix@1@PEAUae_vector@1@PEAUae_state@1@@Z
	 ?nleqcreatelm@alglib@@YAX_J0AEBVreal_1d_array@1@AEAVnleqstate@1@@Z
	 ?nleqcreatelm@alglib@@YAX_JAEBVreal_1d_array@1@AEAVnleqstate@1@@Z
	 ?nleqcreatelm@alglib_impl@@YAX_J0PEAUae_vector@1@PEAUnleqstate@1@PEAUae_state@1@@Z
	 ?nleqiteration@alglib@@YA_NAEBVnleqstate@1@@Z
	 ?nleqiteration@alglib_impl@@YA_NPEAUnleqstate@1@PEAUae_state@1@@Z
	 ?nleqrestartfrom@alglib@@YAXAEBVnleqstate@1@AEBVreal_1d_array@1@@Z
	 ?nleqrestartfrom@alglib_impl@@YAXPEAUnleqstate@1@PEAUae_vector@1@PEAUae_state@1@@Z
	 ?nleqresults@alglib@@YAXAEBVnleqstate@1@AEAVreal_1d_array@1@AEAVnleqreport@1@@Z
	 ?nleqresults@alglib_impl@@YAXPEAUnleqstate@1@PEAUae_vector@1@PEAUnleqreport@1@PEAUae_state@1@@Z
	 ?nleqresultsbuf@alglib@@YAXAEBVnleqstate@1@AEAVreal_1d_array@1@AEAVnleqreport@1@@Z
	 ?nleqresultsbuf@alglib_impl@@YAXPEAUnleqstate@1@PEAUae_vector@1@PEAUnleqreport@1@PEAUae_state@1@@Z
	 ?nleqsetcond@alglib@@YAXAEBVnleqstate@1@N_J@Z
	 ?nleqsetcond@alglib_impl@@YAXPEAUnleqstate@1@N_JPEAUae_state@1@@Z
	 ?nleqsetstpmax@alglib@@YAXAEBVnleqstate@1@N@Z
	 ?nleqsetstpmax@alglib_impl@@YAXPEAUnleqstate@1@NPEAUae_state@1@@Z
	 ?nleqsetxrep@alglib@@YAXAEBVnleqstate@1@_N@Z
	 ?nleqsetxrep@alglib_impl@@YAXPEAUnleqstate@1@_NPEAUae_state@1@@Z
	 ?nleqsolve@alglib@@YAXAEAVnleqstate@1@P6AXAEBVreal_1d_array@1@AEANPEAX@ZP6AX1AEAV31@AEAVreal_2d_array@1@3@ZP6AX1N3@Z3@Z
	 ?polynomialsolve@alglib@@YAXAEBVreal_1d_array@1@_JAEAVcomplex_1d_array@1@AEAVpolynomialsolverreport@1@@Z
	 ?polynomialsolve@alglib_impl@@YAXPEAUae_vector@1@_J0PEAUpolynomialsolverreport@1@PEAUae_state@1@@Z
	 ?rmatrixlusolve@alglib@@YAXAEBVreal_2d_array@1@AEBVinteger_1d_array@1@_JAEBVreal_1d_array@1@AEA_JAEAVdensesolverreport@1@AEAV41@@Z
	 ?rmatrixlusolve@alglib_impl@@YAXPEAUae_matrix@1@PEAUae_vector@1@_J1PEA_JPEAUdensesolverreport@1@1PEAUae_state@1@@Z
	 ?rmatrixlusolvefast@alglib@@YAXAEBVreal_2d_array@1@AEBVinteger_1d_array@1@_JAEBVreal_1d_array@1@AEA_J@Z
	 ?rmatrixlusolvefast@alglib_impl@@YAXPEAUae_matrix@1@PEAUae_vector@1@_J1PEA_JPEAUae_state@1@@Z
	 ?rmatrixlusolvem@alglib@@YAXAEBVreal_2d_array@1@AEBVinteger_1d_array@1@_J02AEA_JAEAVdensesolverreport@1@AEAV21@@Z
	 ?rmatrixlusolvem@alglib_impl@@YAXPEAUae_matrix@1@PEAUae_vector@1@_J02PEA_JPEAUdensesolverreport@1@0PEAUae_state@1@@Z
	 ?rmatrixlusolvemfast@alglib@@YAXAEBVreal_2d_array@1@AEBVinteger_1d_array@1@_J02AEA_J@Z
	 ?rmatrixlusolvemfast@alglib_impl@@YAXPEAUae_matrix@1@PEAUae_vector@1@_J02PEA_JPEAUae_state@1@@Z
	 ?rmatrixmixedsolve@alglib@@YAXAEBVreal_2d_array@1@0AEBVinteger_1d_array@1@_JAEBVreal_1d_array@1@AEA_JAEAVdensesolverreport@1@AEAV41@@Z
	 ?rmatrixmixedsolve@alglib_impl@@YAXPEAUae_matrix@1@0PEAUae_vector@1@_J1PEA_JPEAUdensesolverreport@1@1PEAUae_state@1@@Z
	 ?rmatrixmixedsolvem@alglib@@YAXAEBVreal_2d_array@1@0AEBVinteger_1d_array@1@_J02AEA_JAEAVdensesolverreport@1@AEAV21@@Z
	 ?rmatrixmixedsolvem@alglib_impl@@YAXPEAUae_matrix@1@0PEAUae_vector@1@_J02PEA_JPEAUdensesolverreport@1@0PEAUae_state@1@@Z
	 ?rmatrixsolve@alglib@@YAXAEBVreal_2d_array@1@_JAEBVreal_1d_array@1@AEA_JAEAVdensesolverreport@1@AEAV31@@Z
	 ?rmatrixsolve@alglib_impl@@YAXPEAUae_matrix@1@_JPEAUae_vector@1@PEA_JPEAUdensesolverreport@1@2PEAUae_state@1@@Z
	 ?rmatrixsolvefast@alglib@@YAXAEBVreal_2d_array@1@_JAEBVreal_1d_array@1@AEA_J@Z
	 ?rmatrixsolvefast@alglib_impl@@YAXPEAUae_matrix@1@_JPEAUae_vector@1@PEA_JPEAUae_state@1@@Z
	 ?rmatrixsolvels@alglib@@YAXAEBVreal_2d_array@1@_J1AEBVreal_1d_array@1@NAEA_JAEAVdensesolverlsreport@1@AEAV31@@Z
	 ?rmatrixsolvels@alglib_impl@@YAXPEAUae_matrix@1@_J1PEAUae_vector@1@NPEA_JPEAUdensesolverlsreport@1@2PEAUae_state@1@@Z
	 ?rmatrixsolvem@alglib@@YAXAEBVreal_2d_array@1@_J01_NAEA_JAEAVdensesolverreport@1@AEAV21@@Z
	 ?rmatrixsolvem@alglib_impl@@YAXPEAUae_matrix@1@_J01_NPEA_JPEAUdensesolverreport@1@0PEAUae_state@1@@Z
	 ?rmatrixsolvemfast@alglib@@YAXAEBVreal_2d_array@1@_J01AEA_J@Z
	 ?rmatrixsolvemfast@alglib_impl@@YAXPEAUae_matrix@1@_J01PEA_JPEAUae_state@1@@Z
	 ?smp_cmatrixlusolvem@alglib@@YAXAEBVcomplex_2d_array@1@AEBVinteger_1d_array@1@_J02AEA_JAEAVdensesolverreport@1@AEAV21@@Z
	 ?smp_cmatrixlusolvemfast@alglib@@YAXAEBVcomplex_2d_array@1@AEBVinteger_1d_array@1@_J02AEA_J@Z
	 ?smp_cmatrixsolve@alglib@@YAXAEBVcomplex_2d_array@1@_JAEBVcomplex_1d_array@1@AEA_JAEAVdensesolverreport@1@AEAV31@@Z
	 ?smp_cmatrixsolvefast@alglib@@YAXAEBVcomplex_2d_array@1@_JAEBVcomplex_1d_array@1@AEA_J@Z
	 ?smp_cmatrixsolvem@alglib@@YAXAEBVcomplex_2d_array@1@_J01_NAEA_JAEAVdensesolverreport@1@AEAV21@@Z
	 ?smp_cmatrixsolvemfast@alglib@@YAXAEBVcomplex_2d_array@1@_J01AEA_J@Z
	 ?smp_hpdmatrixcholeskysolvem@alglib@@YAXAEBVcomplex_2d_array@1@_J_N01AEA_JAEAVdensesolverreport@1@AEAV21@@Z
	 ?smp_hpdmatrixcholeskysolvemfast@alglib@@YAXAEBVcomplex_2d_array@1@_J_N01AEA_J@Z
	 ?smp_hpdmatrixsolve@alglib@@YAXAEBVcomplex_2d_array@1@_J_NAEBVcomplex_1d_array@1@AEA_JAEAVdensesolverreport@1@AEAV31@@Z
	 ?smp_hpdmatrixsolvefast@alglib@@YAXAEBVcomplex_2d_array@1@_J_NAEBVcomplex_1d_array@1@AEA_J@Z
	 ?smp_hpdmatrixsolvem@alglib@@YAXAEBVcomplex_2d_array@1@_J_N01AEA_JAEAVdensesolverreport@1@AEAV21@@Z
	 ?smp_hpdmatrixsolvemfast@alglib@@YAXAEBVcomplex_2d_array@1@_J_N01AEA_J@Z
	 ?smp_rmatrixlusolvem@alglib@@YAXAEBVreal_2d_array@1@AEBVinteger_1d_array@1@_J02AEA_JAEAVdensesolverreport@1@AEAV21@@Z
	 ?smp_rmatrixlusolvemfast@alglib@@YAXAEBVreal_2d_array@1@AEBVinteger_1d_array@1@_J02AEA_J@Z
	 ?smp_rmatrixsolve@alglib@@YAXAEBVreal_2d_array@1@_JAEBVreal_1d_array@1@AEA_JAEAVdensesolverreport@1@AEAV31@@Z
	 ?smp_rmatrixsolvefast@alglib@@YAXAEBVreal_2d_array@1@_JAEBVreal_1d_array@1@AEA_J@Z
	 ?smp_rmatrixsolvels@alglib@@YAXAEBVreal_2d_array@1@_J1AEBVreal_1d_array@1@NAEA_JAEAVdensesolverlsreport@1@AEAV31@@Z
	 ?smp_rmatrixsolvem@alglib@@YAXAEBVreal_2d_array@1@_J01_NAEA_JAEAVdensesolverreport@1@AEAV21@@Z
	 ?smp_rmatrixsolvemfast@alglib@@YAXAEBVreal_2d_array@1@_J01AEA_J@Z
	 ?smp_spdmatrixcholeskysolvem@alglib@@YAXAEBVreal_2d_array@1@_J_N01AEA_JAEAVdensesolverreport@1@AEAV21@@Z
	 ?smp_spdmatrixcholeskysolvemfast@alglib@@YAXAEBVreal_2d_array@1@_J_N01AEA_J@Z
	 ?smp_spdmatrixsolve@alglib@@YAXAEBVreal_2d_array@1@_J_NAEBVreal_1d_array@1@AEA_JAEAVdensesolverreport@1@AEAV31@@Z
	 ?smp_spdmatrixsolvefast@alglib@@YAXAEBVreal_2d_array@1@_J_NAEBVreal_1d_array@1@AEA_J@Z
	 ?smp_spdmatrixsolvem@alglib@@YAXAEBVreal_2d_array@1@_J_N01AEA_JAEAVdensesolverreport@1@AEAV21@@Z
	 ?smp_spdmatrixsolvemfast@alglib@@YAXAEBVreal_2d_array@1@_J_N01AEA_J@Z
	 ?spdmatrixcholeskysolve@alglib@@YAXAEBVreal_2d_array@1@_J_NAEBVreal_1d_array@1@AEA_JAEAVdensesolverreport@1@AEAV31@@Z
	 ?spdmatrixcholeskysolve@alglib_impl@@YAXPEAUae_matrix@1@_J_NPEAUae_vector@1@PEA_JPEAUdensesolverreport@1@3PEAUae_state@1@@Z
	 ?spdmatrixcholeskysolvefast@alglib@@YAXAEBVreal_2d_array@1@_J_NAEBVreal_1d_array@1@AEA_J@Z
	 ?spdmatrixcholeskysolvefast@alglib_impl@@YAXPEAUae_matrix@1@_J_NPEAUae_vector@1@PEA_JPEAUae_state@1@@Z
	 ?spdmatrixcholeskysolvem@alglib@@YAXAEBVreal_2d_array@1@_J_N01AEA_JAEAVdensesolverreport@1@AEAV21@@Z
	 ?spdmatrixcholeskysolvem@alglib_impl@@YAXPEAUae_matrix@1@_J_N01PEA_JPEAUdensesolverreport@1@0PEAUae_state@1@@Z
	 ?spdmatrixcholeskysolvemfast@alglib@@YAXAEBVreal_2d_array@1@_J_N01AEA_J@Z
	 ?spdmatrixcholeskysolvemfast@alglib_impl@@YAXPEAUae_matrix@1@_J_N01PEA_JPEAUae_state@1@@Z
	 ?spdmatrixsolve@alglib@@YAXAEBVreal_2d_array@1@_J_NAEBVreal_1d_array@1@AEA_JAEAVdensesolverreport@1@AEAV31@@Z
	 ?spdmatrixsolve@alglib_impl@@YAXPEAUae_matrix@1@_J_NPEAUae_vector@1@PEA_JPEAUdensesolverreport@1@3PEAUae_state@1@@Z
	 ?spdmatrixsolvefast@alglib@@YAXAEBVreal_2d_array@1@_J_NAEBVreal_1d_array@1@AEA_J@Z
	 ?spdmatrixsolvefast@alglib_impl@@YAXPEAUae_matrix@1@_J_NPEAUae_vector@1@PEA_JPEAUae_state@1@@Z
	 ?spdmatrixsolvem@alglib@@YAXAEBVreal_2d_array@1@_J_N01AEA_JAEAVdensesolverreport@1@AEAV21@@Z
	 ?spdmatrixsolvem@alglib_impl@@YAXPEAUae_matrix@1@_J_N01PEA_JPEAUdensesolverreport@1@0PEAUae_state@1@@Z
	 ?spdmatrixsolvemfast@alglib@@YAXAEBVreal_2d_array@1@_J_N01AEA_J@Z
	 ?spdmatrixsolvemfast@alglib_impl@@YAXPEAUae_matrix@1@_J_N01PEA_JPEAUae_state@1@@Z
	 ??0ap_error@alglib@@QEAA@AEBV01@@Z
	 ??1ap_error@alglib@@QEAA@XZ
	 ?airy@alglib@@YAXNAEAN000@Z
	 ?airy@alglib_impl@@YAXNPEAN000PEAUae_state@1@@Z
	 ?besseli0@alglib@@YANN@Z
	 ?besseli0@alglib_impl@@YANNPEAUae_state@1@@Z
	 ?besseli1@alglib@@YANN@Z
	 ?besseli1@alglib_impl@@YANNPEAUae_state@1@@Z
	 ?besselj0@alglib@@YANN@Z
	 ?besselj0@alglib_impl@@YANNPEAUae_state@1@@Z
	 ?besselj1@alglib@@YANN@Z
	 ?besselj1@alglib_impl@@YANNPEAUae_state@1@@Z
	 ?besseljn@alglib@@YAN_JN@Z
	 ?besseljn@alglib_impl@@YAN_JNPEAUae_state@1@@Z
	 ?besselk0@alglib@@YANN@Z
	 ?besselk0@alglib_impl@@YANNPEAUae_state@1@@Z
	 ?besselk1@alglib@@YANN@Z
	 ?besselk1@alglib_impl@@YANNPEAUae_state@1@@Z
	 ?besselkn@alglib@@YAN_JN@Z
	 ?besselkn@alglib_impl@@YAN_JNPEAUae_state@1@@Z
	 ?bessely0@alglib@@YANN@Z
	 ?bessely0@alglib_impl@@YANNPEAUae_state@1@@Z
	 ?bessely1@alglib@@YANN@Z
	 ?bessely1@alglib_impl@@YANNPEAUae_state@1@@Z
	 ?besselyn@alglib@@YAN_JN@Z
	 ?besselyn@alglib_impl@@YAN_JNPEAUae_state@1@@Z
	 ?beta@alglib@@YANNN@Z
	 ?beta@alglib_impl@@YANNNPEAUae_state@1@@Z
	 ?binomialcdistribution@alglib@@YAN_J0N@Z
	 ?binomialcdistribution@alglib_impl@@YAN_J0NPEAUae_state@1@@Z
	 ?binomialdistribution@alglib@@YAN_J0N@Z
	 ?binomialdistribution@alglib_impl@@YAN_J0NPEAUae_state@1@@Z
	 ?chebyshevcalculate@alglib@@YAN_J0N@Z
	 ?chebyshevcalculate@alglib_impl@@YAN_J0NPEAUae_state@1@@Z
	 ?chebyshevcoefficients@alglib@@YAX_JAEAVreal_1d_array@1@@Z
	 ?chebyshevcoefficients@alglib_impl@@YAX_JPEAUae_vector@1@PEAUae_state@1@@Z
	 ?chebyshevsum@alglib@@YANAEBVreal_1d_array@1@_J1N@Z
	 ?chebyshevsum@alglib_impl@@YANPEAUae_vector@1@_J1NPEAUae_state@1@@Z
	 ?chisquarecdistribution@alglib@@YANNN@Z
	 ?chisquarecdistribution@alglib_impl@@YANNNPEAUae_state@1@@Z
	 ?chisquaredistribution@alglib@@YANNN@Z
	 ?chisquaredistribution@alglib_impl@@YANNNPEAUae_state@1@@Z
	 ?dawsonintegral@alglib@@YANN@Z
	 ?dawsonintegral@alglib_impl@@YANNPEAUae_state@1@@Z
	 ?ellipticintegrale@alglib@@YANN@Z
	 ?ellipticintegrale@alglib_impl@@YANNPEAUae_state@1@@Z
	 ?ellipticintegralk@alglib@@YANN@Z
	 ?ellipticintegralk@alglib_impl@@YANNPEAUae_state@1@@Z
	 ?ellipticintegralkhighprecision@alglib@@YANN@Z
	 ?ellipticintegralkhighprecision@alglib_impl@@YANNPEAUae_state@1@@Z
	 ?errorfunction@alglib@@YANN@Z
	 ?errorfunction@alglib_impl@@YANNPEAUae_state@1@@Z
	 ?errorfunctionc@alglib@@YANN@Z
	 ?errorfunctionc@alglib_impl@@YANNPEAUae_state@1@@Z
	 ?exponentialintegralei@alglib@@YANN@Z
	 ?exponentialintegralei@alglib_impl@@YANNPEAUae_state@1@@Z
	 ?exponentialintegralen@alglib@@YANN_J@Z
	 ?exponentialintegralen@alglib_impl@@YANN_JPEAUae_state@1@@Z
	 ?fcdistribution@alglib@@YAN_J0N@Z
	 ?fcdistribution@alglib_impl@@YAN_J0NPEAUae_state@1@@Z
	 ?fdistribution@alglib@@YAN_J0N@Z
	 ?fdistribution@alglib_impl@@YAN_J0NPEAUae_state@1@@Z
	 ?fresnelintegral@alglib@@YAXNAEAN0@Z
	 ?fresnelintegral@alglib_impl@@YAXNPEAN0PEAUae_state@1@@Z
	 ?fromchebyshev@alglib@@YAXAEBVreal_1d_array@1@_JAEAV21@@Z
	 ?fromchebyshev@alglib_impl@@YAXPEAUae_vector@1@_J0PEAUae_state@1@@Z
	 ?gammafunction@alglib@@YANN@Z
	 ?gammafunction@alglib_impl@@YANNPEAUae_state@1@@Z
	 ?hermitecalculate@alglib@@YAN_JN@Z
	 ?hermitecalculate@alglib_impl@@YAN_JNPEAUae_state@1@@Z
	 ?hermitecoefficients@alglib@@YAX_JAEAVreal_1d_array@1@@Z
	 ?hermitecoefficients@alglib_impl@@YAX_JPEAUae_vector@1@PEAUae_state@1@@Z
	 ?hermitesum@alglib@@YANAEBVreal_1d_array@1@_JN@Z
	 ?hermitesum@alglib_impl@@YANPEAUae_vector@1@_JNPEAUae_state@1@@Z
	 ?hyperbolicsinecosineintegrals@alglib@@YAXNAEAN0@Z
	 ?hyperbolicsinecosineintegrals@alglib_impl@@YAXNPEAN0PEAUae_state@1@@Z
	 ?incompletebeta@alglib@@YANNNN@Z
	 ?incompletebeta@alglib_impl@@YANNNNPEAUae_state@1@@Z
	 ?incompleteellipticintegrale@alglib@@YANNN@Z
	 ?incompleteellipticintegrale@alglib_impl@@YANNNPEAUae_state@1@@Z
	 ?incompleteellipticintegralk@alglib@@YANNN@Z
	 ?incompleteellipticintegralk@alglib_impl@@YANNNPEAUae_state@1@@Z
	 ?incompletegamma@alglib@@YANNN@Z
	 ?incompletegamma@alglib_impl@@YANNNPEAUae_state@1@@Z
	 ?incompletegammac@alglib@@YANNN@Z
	 ?incompletegammac@alglib_impl@@YANNNPEAUae_state@1@@Z
	 ?invbinomialdistribution@alglib@@YAN_J0N@Z
	 ?invbinomialdistribution@alglib_impl@@YAN_J0NPEAUae_state@1@@Z
	 ?invchisquaredistribution@alglib@@YANNN@Z
	 ?invchisquaredistribution@alglib_impl@@YANNNPEAUae_state@1@@Z
	 ?inverf@alglib@@YANN@Z
	 ?inverf@alglib_impl@@YANNPEAUae_state@1@@Z
	 ?invfdistribution@alglib@@YAN_J0N@Z
	 ?invfdistribution@alglib_impl@@YAN_J0NPEAUae_state@1@@Z
	 ?invincompletebeta@alglib@@YANNNN@Z
	 ?invincompletebeta@alglib_impl@@YANNNNPEAUae_state@1@@Z
	 ?invincompletegammac@alglib@@YANNN@Z
	 ?invincompletegammac@alglib_impl@@YANNNPEAUae_state@1@@Z
	 ?invnormaldistribution@alglib@@YANN@Z
	 ?invnormaldistribution@alglib_impl@@YANNPEAUae_state@1@@Z
	 ?invpoissondistribution@alglib@@YAN_JN@Z
	 ?invpoissondistribution@alglib_impl@@YAN_JNPEAUae_state@1@@Z
	 ?invstudenttdistribution@alglib@@YAN_JN@Z
	 ?invstudenttdistribution@alglib_impl@@YAN_JNPEAUae_state@1@@Z
	 ?jacobianellipticfunctions@alglib@@YAXNNAEAN000@Z
	 ?jacobianellipticfunctions@alglib_impl@@YAXNNPEAN000PEAUae_state@1@@Z
	 ?laguerrecalculate@alglib@@YAN_JN@Z
	 ?laguerrecalculate@alglib_impl@@YAN_JNPEAUae_state@1@@Z
	 ?laguerrecoefficients@alglib@@YAX_JAEAVreal_1d_array@1@@Z
	 ?laguerrecoefficients@alglib_impl@@YAX_JPEAUae_vector@1@PEAUae_state@1@@Z
	 ?laguerresum@alglib@@YANAEBVreal_1d_array@1@_JN@Z
	 ?laguerresum@alglib_impl@@YANPEAUae_vector@1@_JNPEAUae_state@1@@Z
	 ?legendrecalculate@alglib@@YAN_JN@Z
	 ?legendrecalculate@alglib_impl@@YAN_JNPEAUae_state@1@@Z
	 ?legendrecoefficients@alglib@@YAX_JAEAVreal_1d_array@1@@Z
	 ?legendrecoefficients@alglib_impl@@YAX_JPEAUae_vector@1@PEAUae_state@1@@Z
	 ?legendresum@alglib@@YANAEBVreal_1d_array@1@_JN@Z
	 ?legendresum@alglib_impl@@YANPEAUae_vector@1@_JNPEAUae_state@1@@Z
	 ?lngamma@alglib@@YANNAEAN@Z
	 ?lngamma@alglib_impl@@YANNPEANPEAUae_state@1@@Z
	 ?normaldistribution@alglib@@YANN@Z
	 ?normaldistribution@alglib_impl@@YANNPEAUae_state@1@@Z
	 ?poissoncdistribution@alglib@@YAN_JN@Z
	 ?poissoncdistribution@alglib_impl@@YAN_JNPEAUae_state@1@@Z
	 ?poissondistribution@alglib@@YAN_JN@Z
	 ?poissondistribution@alglib_impl@@YAN_JNPEAUae_state@1@@Z
	 ?psi@alglib@@YANN@Z
	 ?psi@alglib_impl@@YANNPEAUae_state@1@@Z
	 ?sinecosineintegrals@alglib@@YAXNAEAN0@Z
	 ?sinecosineintegrals@alglib_impl@@YAXNPEAN0PEAUae_state@1@@Z
	 ?studenttdistribution@alglib@@YAN_JN@Z
	 ?studenttdistribution@alglib_impl@@YAN_JNPEAUae_state@1@@Z
	 ??0ap_error@alglib@@QEAA@AEBV01@@Z
	 ??1ap_error@alglib@@QEAA@XZ
	 ?_pexec_covm@alglib_impl@@YAXPEAUae_matrix@1@_J10PEAUae_state@1@@Z
	 ?_pexec_covm2@alglib_impl@@YAXPEAUae_matrix@1@0_J110PEAUae_state@1@@Z
	 ?_pexec_pearsoncorrm@alglib_impl@@YAXPEAUae_matrix@1@_J10PEAUae_state@1@@Z
	 ?_pexec_pearsoncorrm2@alglib_impl@@YAXPEAUae_matrix@1@0_J110PEAUae_state@1@@Z
	 ?_pexec_rankdata@alglib_impl@@YAXPEAUae_matrix@1@_J1PEAUae_state@1@@Z
	 ?_pexec_rankdatacentered@alglib_impl@@YAXPEAUae_matrix@1@_J1PEAUae_state@1@@Z
	 ?_pexec_spearmancorrm@alglib_impl@@YAXPEAUae_matrix@1@_J10PEAUae_state@1@@Z
	 ?_pexec_spearmancorrm2@alglib_impl@@YAXPEAUae_matrix@1@0_J110PEAUae_state@1@@Z
	 ?cov2@alglib@@YANAEBVreal_1d_array@1@0@Z
	 ?cov2@alglib@@YANAEBVreal_1d_array@1@0_J@Z
	 ?cov2@alglib_impl@@YANPEAUae_vector@1@0_JPEAUae_state@1@@Z
	 ?covm@alglib@@YAXAEBVreal_2d_array@1@_J1AEAV21@@Z
	 ?covm@alglib@@YAXAEBVreal_2d_array@1@AEAV21@@Z
	 ?covm@alglib_impl@@YAXPEAUae_matrix@1@_J10PEAUae_state@1@@Z
	 ?covm2@alglib@@YAXAEBVreal_2d_array@1@0_J11AEAV21@@Z
	 ?covm2@alglib@@YAXAEBVreal_2d_array@1@0AEAV21@@Z
	 ?covm2@alglib_impl@@YAXPEAUae_matrix@1@0_J110PEAUae_state@1@@Z
	 ?ftest@alglib@@YAXAEBVreal_1d_array@1@_J01AEAN22@Z
	 ?ftest@alglib_impl@@YAXPEAUae_vector@1@_J01PEAN22PEAUae_state@1@@Z
	 ?jarqueberatest@alglib@@YAXAEBVreal_1d_array@1@_JAEAN@Z
	 ?jarqueberatest@alglib_impl@@YAXPEAUae_vector@1@_JPEANPEAUae_state@1@@Z
	 ?mannwhitneyutest@alglib@@YAXAEBVreal_1d_array@1@_J01AEAN22@Z
	 ?mannwhitneyutest@alglib_impl@@YAXPEAUae_vector@1@_J01PEAN22PEAUae_state@1@@Z
	 ?onesamplesigntest@alglib@@YAXAEBVreal_1d_array@1@_JNAEAN22@Z
	 ?onesamplesigntest@alglib_impl@@YAXPEAUae_vector@1@_JNPEAN22PEAUae_state@1@@Z
	 ?onesamplevariancetest@alglib@@YAXAEBVreal_1d_array@1@_JNAEAN22@Z
	 ?onesamplevariancetest@alglib_impl@@YAXPEAUae_vector@1@_JNPEAN22PEAUae_state@1@@Z
	 ?pearsoncorr2@alglib@@YANAEBVreal_1d_array@1@0@Z
	 ?pearsoncorr2@alglib@@YANAEBVreal_1d_array@1@0_J@Z
	 ?pearsoncorr2@alglib_impl@@YANPEAUae_vector@1@0_JPEAUae_state@1@@Z
	 ?pearsoncorrelation@alglib@@YANAEBVreal_1d_array@1@0_J@Z
	 ?pearsoncorrelation@alglib_impl@@YANPEAUae_vector@1@0_JPEAUae_state@1@@Z
	 ?pearsoncorrelationsignificance@alglib@@YAXN_JAEAN11@Z
	 ?pearsoncorrelationsignificance@alglib_impl@@YAXN_JPEAN11PEAUae_state@1@@Z
	 ?pearsoncorrm@alglib@@YAXAEBVreal_2d_array@1@_J1AEAV21@@Z
	 ?pearsoncorrm@alglib@@YAXAEBVreal_2d_array@1@AEAV21@@Z
	 ?pearsoncorrm@alglib_impl@@YAXPEAUae_matrix@1@_J10PEAUae_state@1@@Z
	 ?pearsoncorrm2@alglib@@YAXAEBVreal_2d_array@1@0_J11AEAV21@@Z
	 ?pearsoncorrm2@alglib@@YAXAEBVreal_2d_array@1@0AEAV21@@Z
	 ?pearsoncorrm2@alglib_impl@@YAXPEAUae_matrix@1@0_J110PEAUae_state@1@@Z
	 ?rankdata@alglib@@YAXAEAVreal_2d_array@1@@Z
	 ?rankdata@alglib@@YAXAEBVreal_2d_array@1@_J1@Z
	 ?rankdata@alglib_impl@@YAXPEAUae_matrix@1@_J1PEAUae_state@1@@Z
	 ?rankdatacentered@alglib@@YAXAEAVreal_2d_array@1@@Z
	 ?rankdatacentered@alglib@@YAXAEBVreal_2d_array@1@_J1@Z
	 ?rankdatacentered@alglib_impl@@YAXPEAUae_matrix@1@_J1PEAUae_state@1@@Z
	 ?sampleadev@alglib@@YAXAEBVreal_1d_array@1@_JAEAN@Z
	 ?sampleadev@alglib@@YAXAEBVreal_1d_array@1@AEAN@Z
	 ?sampleadev@alglib_impl@@YAXPEAUae_vector@1@_JPEANPEAUae_state@1@@Z
	 ?samplekurtosis@alglib@@YANAEBVreal_1d_array@1@@Z
	 ?samplekurtosis@alglib@@YANAEBVreal_1d_array@1@_J@Z
	 ?samplekurtosis@alglib_impl@@YANPEAUae_vector@1@_JPEAUae_state@1@@Z
	 ?samplemean@alglib@@YANAEBVreal_1d_array@1@@Z
	 ?samplemean@alglib@@YANAEBVreal_1d_array@1@_J@Z
	 ?samplemean@alglib_impl@@YANPEAUae_vector@1@_JPEAUae_state@1@@Z
	 ?samplemedian@alglib@@YAXAEBVreal_1d_array@1@_JAEAN@Z
	 ?samplemedian@alglib@@YAXAEBVreal_1d_array@1@AEAN@Z
	 ?samplemedian@alglib_impl@@YAXPEAUae_vector@1@_JPEANPEAUae_state@1@@Z
	 ?samplemoments@alglib@@YAXAEBVreal_1d_array@1@_JAEAN222@Z
	 ?samplemoments@alglib@@YAXAEBVreal_1d_array@1@AEAN111@Z
	 ?samplemoments@alglib_impl@@YAXPEAUae_vector@1@_JPEAN222PEAUae_state@1@@Z
	 ?samplepercentile@alglib@@YAXAEBVreal_1d_array@1@_JNAEAN@Z
	 ?samplepercentile@alglib@@YAXAEBVreal_1d_array@1@NAEAN@Z
	 ?samplepercentile@alglib_impl@@YAXPEAUae_vector@1@_JNPEANPEAUae_state@1@@Z
	 ?sampleskewness@alglib@@YANAEBVreal_1d_array@1@@Z
	 ?sampleskewness@alglib@@YANAEBVreal_1d_array@1@_J@Z
	 ?sampleskewness@alglib_impl@@YANPEAUae_vector@1@_JPEAUae_state@1@@Z
	 ?samplevariance@alglib@@YANAEBVreal_1d_array@1@@Z
	 ?samplevariance@alglib@@YANAEBVreal_1d_array@1@_J@Z
	 ?samplevariance@alglib_impl@@YANPEAUae_vector@1@_JPEAUae_state@1@@Z
	 ?smp_covm@alglib@@YAXAEBVreal_2d_array@1@_J1AEAV21@@Z
	 ?smp_covm@alglib@@YAXAEBVreal_2d_array@1@AEAV21@@Z
	 ?smp_covm2@alglib@@YAXAEBVreal_2d_array@1@0_J11AEAV21@@Z
	 ?smp_covm2@alglib@@YAXAEBVreal_2d_array@1@0AEAV21@@Z
	 ?smp_pearsoncorrm@alglib@@YAXAEBVreal_2d_array@1@_J1AEAV21@@Z
	 ?smp_pearsoncorrm@alglib@@YAXAEBVreal_2d_array@1@AEAV21@@Z
	 ?smp_pearsoncorrm2@alglib@@YAXAEBVreal_2d_array@1@0_J11AEAV21@@Z
	 ?smp_pearsoncorrm2@alglib@@YAXAEBVreal_2d_array@1@0AEAV21@@Z
	 ?smp_rankdata@alglib@@YAXAEAVreal_2d_array@1@@Z
	 ?smp_rankdata@alglib@@YAXAEBVreal_2d_array@1@_J1@Z
	 ?smp_rankdatacentered@alglib@@YAXAEAVreal_2d_array@1@@Z
	 ?smp_rankdatacentered@alglib@@YAXAEBVreal_2d_array@1@_J1@Z
	 ?smp_spearmancorrm@alglib@@YAXAEBVreal_2d_array@1@_J1AEAV21@@Z
	 ?smp_spearmancorrm@alglib@@YAXAEBVreal_2d_array@1@AEAV21@@Z
	 ?smp_spearmancorrm2@alglib@@YAXAEBVreal_2d_array@1@0_J11AEAV21@@Z
	 ?smp_spearmancorrm2@alglib@@YAXAEBVreal_2d_array@1@0AEAV21@@Z
	 ?spearmancorr2@alglib@@YANAEBVreal_1d_array@1@0@Z
	 ?spearmancorr2@alglib@@YANAEBVreal_1d_array@1@0_J@Z
	 ?spearmancorr2@alglib_impl@@YANPEAUae_vector@1@0_JPEAUae_state@1@@Z
	 ?spearmancorrm@alglib@@YAXAEBVreal_2d_array@1@_J1AEAV21@@Z
	 ?spearmancorrm@alglib@@YAXAEBVreal_2d_array@1@AEAV21@@Z
	 ?spearmancorrm@alglib_impl@@YAXPEAUae_matrix@1@_J10PEAUae_state@1@@Z
	 ?spearmancorrm2@alglib@@YAXAEBVreal_2d_array@1@0_J11AEAV21@@Z
	 ?spearmancorrm2@alglib@@YAXAEBVreal_2d_array@1@0AEAV21@@Z
	 ?spearmancorrm2@alglib_impl@@YAXPEAUae_matrix@1@0_J110PEAUae_state@1@@Z
	 ?spearmanrankcorrelation@alglib@@YANAEBVreal_1d_array@1@0_J@Z
	 ?spearmanrankcorrelation@alglib_impl@@YANPEAUae_vector@1@0_JPEAUae_state@1@@Z
	 ?spearmanrankcorrelationsignificance@alglib@@YAXN_JAEAN11@Z
	 ?spearmanrankcorrelationsignificance@alglib_impl@@YAXN_JPEAN11PEAUae_state@1@@Z
	 ?studentttest1@alglib@@YAXAEBVreal_1d_array@1@_JNAEAN22@Z
	 ?studentttest1@alglib_impl@@YAXPEAUae_vector@1@_JNPEAN22PEAUae_state@1@@Z
	 ?studentttest2@alglib@@YAXAEBVreal_1d_array@1@_J01AEAN22@Z
	 ?studentttest2@alglib_impl@@YAXPEAUae_vector@1@_J01PEAN22PEAUae_state@1@@Z
	 ?unequalvariancettest@alglib@@YAXAEBVreal_1d_array@1@_J01AEAN22@Z
	 ?unequalvariancettest@alglib_impl@@YAXPEAUae_vector@1@_J01PEAN22PEAUae_state@1@@Z
	 ?wilcoxonsignedranktest@alglib@@YAXAEBVreal_1d_array@1@_JNAEAN22@Z
	 ?wilcoxonsignedranktest@alglib_impl@@YAXPEAUae_vector@1@_JNPEAN22PEAUae_state@1@@Z
